ASxxxx Assembler V02.00 + NoICE + SDCC mods  (STMicroelectronics STM8), page 1.
Hexadecimal [24-Bits]



                                      1 ;;
                                      2 ; Copyright Jacques Deschênes 2019 
                                      3 ; This file is part of MONA 
                                      4 ;
                                      5 ;     MONA is free software: you can redistribute it and/or modify
                                      6 ;     it under the terms of the GNU General Public License as published by
                                      7 ;     the Free Software Foundation, either version 3 of the License, or
                                      8 ;     (at your option) any later version.
                                      9 ;
                                     10 ;     MONA is distributed in the hope that it will be useful,
                                     11 ;     but WITHOUT ANY WARRANTY; without even the implied warranty of
                                     12 ;     MERCHANTABILITY or FITNESS FOR A PARTICULAR PURPOSE.  See the
                                     13 ;     GNU General Public License for more details.
                                     14 ;
                                     15 ;     You should have received a copy of the GNU General Public License
                                     16 ;     along with MONA.  If not, see <http://www.gnu.org/licenses/>.
                                     17 ;;
                                     18 ;--------------------------------------
                                     19 ;   globals sub-routines and variables
                                     20 ;   module 
                                     21 ;--------------------------------------
                                     22     .module GLOBALS 
                                     23 
                                        	.include "../inc/nucleo_8s208.inc"
                                        ;;
                                        ; Copyright Jacques Deschênes 2019 
                                        ; This file is part of MONA 
                                        ;
                                        ;     MONA is free software: you can redistribute it and/or modify
                                        ;     it under the terms of the GNU General Public License as published by
                                        ;     the Free Software Foundation, either version 3 of the License, or
                                        ;     (at your option) any later version.
                                        ;
                                        ;     MONA is distributed in the hope that it will be useful,
                                        ;     but WITHOUT ANY WARRANTY; without even the implied warranty of
                                        ;     MERCHANTABILITY or FITNESS FOR A PARTICULAR PURPOSE.  See the
                                        ;     GNU General Public License for more details.
                                        ;
                                        ;     You should have received a copy of the GNU General Public License
                                        ;     along with MONA.  If not, see <http://www.gnu.org/licenses/>.
                                        ;;
                                        ;;;;;;;;;;;;;;;;;;;;;;;;;;;;;;;;;;;;;;;;;;;;;;;;;
                                        ; NUCLEO-8S208RB board specific definitions
                                        ; Date: 2019/10/29
                                        ; author: Jacques Deschênes, copyright 2018,2019
                                        ; licence: GPLv3
                                        ;;;;;;;;;;;;;;;;;;;;;;;;;;;;;;;;;;;;;;;;;;;;;;;;;;
                                        
                                        ; mcu on board is stm8s208rbt6
                                        
                                        ; crystal on board is 8Mhz
                                 
                                        
                                        ; LED2 is user LED
                                        ; connected to PC5 via Q2 -> 2N7002 MOSFET
                                 
                                 
                                 
                                        
                                        ; B1 on schematic is user button
                                        ; connected to PE4
                                        ; external pullup resistor R6 4k7 and debounce capacitor C5 100nF
                                 
                                 
                                 
                                        
                                        
                                        	.include "../inc/stm8s208.inc"
                                        ;;
                                        ; Copyright Jacques Deschênes 2019 
                                        ; This file is part of MONA 
                                        ;
                                        ;     MONA is free software: you can redistribute it and/or modify
                                        ;     it under the terms of the GNU General Public License as published by
                                        ;     the Free Software Foundation, either version 3 of the License, or
                                        ;     (at your option) any later version.
                                        ;
                                        ;     MONA is distributed in the hope that it will be useful,
                                        ;     but WITHOUT ANY WARRANTY; without even the implied warranty of
                                        ;     MERCHANTABILITY or FITNESS FOR A PARTICULAR PURPOSE.  See the
                                        ;     GNU General Public License for more details.
                                        ;
                                        ;     You should have received a copy of the GNU General Public License
                                        ;     along with MONA.  If not, see <http://www.gnu.org/licenses/>.
                                        ;;
                                        ;;;;;;;;;;;;;;;;;;;;;;;;;;;;;;;;;;;
                                        ; 2019/10/18
                                        ; STM8S208RB µC registers map
                                        ; sdas source file
                                        ; author: Jacques Deschênes, copyright 2018,2019
                                        ; licence: GPLv3
                                        ;;;;;;;;;;;;;;;;;;;;;;;;;;;;;;;;;;;;
                                        	.module stm8s208rb
                                        
                                        ;;;;;;;;;;;;
                                        ; bits
                                        ;;;;;;;;;;;;
                                 
                                 
                                 
                                 
                                 
                                 
                                 
                                 
                                         	
                                        ;;;;;;;;;;;;
                                        ; bits masks
                                        ;;;;;;;;;;;;
                                 
                                 
                                 
                                 
                                 
                                 
                                 
                                 
                                        
                                        ; HSI oscillator frequency 16Mhz
                                 
                                        ; LSI oscillator frequency 128Khz
                                 
                                        
                                        ; controller memory regions
                                 
                                 
                                        ; STM8S208RB have 128K flash
                                 
                                        
                                 
                                 
                                 
                                 
                                 
                                 
                                 
                                 
                                 
                                 
                                 
                                 
                                 
                                 
                                 
                                 
                                        
                                        ; options bytes
                                        ; this one can be programmed only from SWIM  (ICP)
                                 
                                        ; these can be programmed at runtime (IAP)
                                 
                                 
                                 
                                 
                                 
                                 
                                 
                                 
                                 
                                 
                                 
                                 
                                 
                                 
                                 
                                 
                                        ; option registers usage
                                        ; read out protection, value 0xAA enable ROP
                                 
                                        ; user boot code, {0..0x3e} 512 bytes row
                                 
                                 
                                        ; alternate function register
                                 
                                 
                                        ; miscelinous options
                                 
                                 
                                        ; clock options
                                 
                                 
                                        ; HSE clock startup delay
                                 
                                 
                                        ; flash wait state
                                 
                                 
                                        
                                        ; watchdog options bits
                                 
                                 
                                 
                                 
                                        ; NWDGOPT bits
                                 
                                 
                                 
                                 
                                        
                                        ; CLKOPT bits
                                 
                                 
                                 
                                 
                                        
                                        ; AFR option, remapable functions
                                 
                                 
                                 
                                 
                                 
                                 
                                 
                                 
                                        
                                        ; device ID = (read only)
                                 
                                 
                                 
                                 
                                 
                                 
                                 
                                 
                                 
                                 
                                 
                                 
                                        
                                        
                                 
                                 
                                        ; PORTS SFR OFFSET
                                 
                                 
                                 
                                 
                                 
                                 
                                 
                                        
                                        ; GPIO
                                        ; gpio register offset to base
                                 
                                 
                                 
                                 
                                 
                                        
                                        ; port A
                                 
                                 
                                 
                                 
                                 
                                 
                                        ; port B
                                 
                                 
                                 
                                 
                                 
                                 
                                        ; port C
                                 
                                 
                                 
                                 
                                 
                                 
                                        ; port D
                                 
                                 
                                 
                                 
                                 
                                 
                                        ; port E
                                 
                                 
                                 
                                 
                                 
                                 
                                        ; port F
                                 
                                 
                                 
                                 
                                 
                                 
                                        ; port G
                                 
                                 
                                 
                                 
                                 
                                 
                                        ; port H not present on LQFP48/LQFP64 package
                                 
                                 
                                 
                                 
                                 
                                 
                                        ; port I ; only bit 0 on LQFP64 package, not present on LQFP48
                                 
                                 
                                 
                                 
                                 
                                 
                                        
                                        ; input modes CR1
                                 
                                 
                                        ; output mode CR1
                                 
                                 
                                        ; input modes CR2
                                 
                                 
                                        ; output speed CR2
                                 
                                 
                                        
                                        
                                        ; Flash memory
                                 
                                 
                                 
                                 
                                 
                                 
                                 
                                 
                                        ; data memory unlock keys
                                 
                                 
                                        ; flash memory unlock keys
                                 
                                 
                                        ; FLASH_CR1 bits
                                 
                                 
                                 
                                 
                                        ; FLASH_CR2 bits
                                 
                                 
                                 
                                 
                                 
                                        ; FLASH_FPR bits
                                 
                                 
                                 
                                 
                                 
                                 
                                        ; FLASH_NFPR bits
                                 
                                 
                                 
                                 
                                 
                                 
                                        ; FLASH_IAPSR bits
                                 
                                 
                                 
                                 
                                 
                                        
                                        ; Interrupt control
                                 
                                 
                                        
                                        ; Reset Status
                                 
                                        
                                        ; Clock Registers
                                 
                                 
                                 
                                 
                                 
                                 
                                 
                                 
                                 
                                 
                                 
                                 
                                        
                                        ; Peripherals clock gating
                                        ; CLK_PCKENR1 
                                 
                                 
                                 
                                 
                                 
                                 
                                 
                                 
                                        ; CLK_PCKENR2
                                 
                                 
                                 
                                        
                                        ; Clock bits
                                 
                                 
                                 
                                 
                                 
                                 
                                        
                                 
                                 
                                        ; clock source
                                 
                                 
                                 
                                        
                                 
                                 
                                 
                                 
                                        
                                 
                                 
                                 
                                 
                                 
                                        
                                        ; Watchdog
                                 
                                 
                                 
                                 
                                 
                                 
                                 
                                 
                                        
                                        ; Beeper
                                        ; beeper output is alternate function AFR7 on PD4
                                        ; connected to CN9-6
                                 
                                 
                                 
                                 
                                        
                                        ; SPI
                                 
                                 
                                 
                                 
                                 
                                 
                                 
                                 
                                        
                                        ; I2C
                                 
                                 
                                 
                                 
                                 
                                 
                                 
                                 
                                 
                                 
                                 
                                 
                                 
                                 
                                        
                                 
                                 
                                 
                                        
                                 
                                 
                                 
                                 
                                 
                                        
                                 
                                        
                                 
                                 
                                        
                                 
                                 
                                 
                                 
                                        
                                 
                                 
                                 
                                 
                                 
                                 
                                 
                                        
                                 
                                 
                                 
                                 
                                 
                                        
                                 
                                 
                                 
                                 
                                 
                                        
                                 
                                 
                                 
                                        
                                        ; Precalculated values, all in KHz
                                 
                                 
                                        ;
                                        ; Fast I2C mode max rise time = 300ns
                                        ; I2C_FREQR = 16 = (MHz) => tMASTER = 1/16 = 62.5 ns
                                        ; TRISER = = (300/62.5) + 1 = floor(4.8) + 1 = 5.
                                        
                                 
                                        
                                 
                                 
                                 
                                        
                                 
                                 
                                 
                                        
                                 
                                 
                                        ;
                                        ; Standard I2C mode max rise time = 1000ns
                                        ; I2C_FREQR = 16 = (MHz) => tMASTER = 1/16 = 62.5 ns
                                        ; TRISER = = (1000/62.5) + 1 = floor(16) + 1 = 17.
                                        
                                 
                                        
                                 
                                 
                                 
                                        
                                 
                                 
                                 
                                        
                                 
                                 
                                        
                                        ; baudrate constant for brr_value table access
                                 
                                 
                                 
                                 
                                 
                                 
                                 
                                 
                                 
                                 
                                        
                                        ; UART1 
                                 
                                 
                                 
                                 
                                 
                                 
                                 
                                 
                                 
                                 
                                 
                                        
                                        ; UART3
                                 
                                 
                                 
                                 
                                 
                                 
                                 
                                 
                                 
                                        
                                        ; UART Status Register bits
                                 
                                 
                                 
                                 
                                 
                                 
                                 
                                 
                                        
                                        ; Uart Control Register bits
                                 
                                 
                                 
                                 
                                 
                                 
                                 
                                 
                                        
                                 
                                 
                                 
                                 
                                 
                                 
                                 
                                 
                                        
                                 
                                 
                                 
                                 
                                 
                                 
                                 
                                        
                                 
                                 
                                 
                                 
                                 
                                 
                                 
                                        
                                 
                                 
                                 
                                 
                                 
                                        ; LIN mode config register
                                 
                                 
                                 
                                 
                                 
                                 
                                        
                                        ; TIMERS
                                        ; Timer 1 - 16-bit timer with complementary PWM outputs
                                 
                                 
                                 
                                 
                                 
                                 
                                 
                                 
                                 
                                 
                                 
                                 
                                 
                                 
                                 
                                 
                                 
                                 
                                 
                                 
                                 
                                 
                                 
                                 
                                 
                                 
                                 
                                 
                                 
                                 
                                 
                                 
                                        
                                        ; Timer Control Register bits
                                 
                                 
                                 
                                 
                                 
                                 
                                 
                                 
                                        
                                 
                                 
                                 
                                 
                                 
                                        
                                        ; Timer Slave Mode Control bits
                                 
                                 
                                 
                                 
                                 
                                 
                                 
                                        
                                        ; Timer External Trigger Enable bits
                                 
                                 
                                 
                                 
                                 
                                 
                                 
                                 
                                        
                                        ; Timer Interrupt Enable bits
                                 
                                 
                                 
                                 
                                 
                                 
                                 
                                 
                                        
                                        ; Timer Status Register bits
                                 
                                 
                                 
                                 
                                 
                                 
                                 
                                 
                                        
                                 
                                 
                                 
                                 
                                        
                                        ; Timer Event Generation Register bits
                                 
                                 
                                 
                                 
                                 
                                 
                                 
                                 
                                        
                                        ; Capture/Compare Mode Register 1 - channel configured in output
                                 
                                 
                                 
                                 
                                 
                                 
                                 
                                 
                                        
                                        ; Capture/Compare Mode Register 1 - channel configured in input
                                 
                                 
                                 
                                 
                                 
                                 
                                        ;  TIM1_CCMR1_CC1S1 = (1)
                                 
                                        
                                        ; Capture/Compare Mode Register 2 - channel configured in output
                                 
                                 
                                 
                                 
                                 
                                 
                                 
                                 
                                        
                                        ; Capture/Compare Mode Register 2 - channel configured in input
                                 
                                 
                                 
                                 
                                 
                                 
                                        ;  TIM1_CCMR2_CC2S1 = (1)
                                 
                                        
                                        ; Capture/Compare Mode Register 3 - channel configured in output
                                 
                                 
                                 
                                 
                                 
                                 
                                 
                                 
                                        
                                        ; Capture/Compare Mode Register 3 - channel configured in input
                                 
                                 
                                 
                                 
                                 
                                 
                                        ;  TIM1_CCMR3_CC3S1 = (1)
                                 
                                        
                                        ; Capture/Compare Mode Register 4 - channel configured in output
                                 
                                 
                                 
                                 
                                 
                                 
                                 
                                 
                                        
                                        ; Capture/Compare Mode Register 4 - channel configured in input
                                 
                                 
                                 
                                 
                                 
                                 
                                        ;  TIM1_CCMR4_CC4S1 = (1)
                                 
                                        
                                        ; Timer 2 - 16-bit timer
                                 
                                 
                                 
                                 
                                 
                                 
                                 
                                 
                                 
                                 
                                 
                                 
                                 
                                 
                                 
                                 
                                 
                                 
                                 
                                 
                                 
                                        
                                        ; Timer 3
                                 
                                 
                                 
                                 
                                 
                                 
                                 
                                 
                                 
                                 
                                 
                                 
                                 
                                 
                                 
                                 
                                 
                                        
                                        ; TIM3_CR1  fields
                                 
                                 
                                 
                                 
                                 
                                        ; TIM3_CCR2  fields
                                 
                                 
                                 
                                        ; TIM3_CCER1 fields
                                 
                                 
                                 
                                 
                                        ; TIM3_CCER2 fields
                                 
                                 
                                        
                                        ; Timer 4
                                 
                                 
                                 
                                 
                                 
                                 
                                 
                                        
                                        ; Timer 4 bitmasks
                                        
                                 
                                 
                                 
                                 
                                 
                                        
                                 
                                        
                                 
                                        
                                 
                                        
                                 
                                 
                                 
                                        
                                 
                                 
                                 
                                 
                                 
                                 
                                 
                                 
                                        
                                        ; ADC2
                                 
                                 
                                 
                                 
                                 
                                 
                                 
                                 
                                         
                                        ; ADC bitmasks
                                        
                                 
                                 
                                 
                                 
                                 
                                 
                                 
                                 
                                        
                                 
                                 
                                 
                                 
                                 
                                        
                                 
                                 
                                 
                                 
                                 
                                        
                                 
                                 
                                        
                                        ; beCAN
                                 
                                 
                                 
                                 
                                 
                                 
                                 
                                 
                                 
                                 
                                 
                                 
                                 
                                 
                                 
                                 
                                 
                                 
                                 
                                 
                                 
                                 
                                 
                                 
                                        
                                        
                                        ; CPU
                                 
                                 
                                 
                                 
                                 
                                 
                                 
                                 
                                 
                                 
                                 
                                        
                                        ; global configuration register
                                 
                                 
                                 
                                        
                                        ; interrupt control registers
                                 
                                 
                                 
                                 
                                 
                                 
                                 
                                 
                                        
                                        ; SWIM, control and status register
                                 
                                        ; debug registers
                                 
                                 
                                 
                                 
                                 
                                 
                                 
                                 
                                 
                                 
                                 
                                        
                                        ; Interrupt Numbers
                                 
                                 
                                 
                                 
                                 
                                 
                                 
                                 
                                 
                                 
                                 
                                 
                                 
                                 
                                 
                                 
                                 
                                 
                                 
                                 
                                 
                                 
                                 
                                 
                                 
                                        
                                        ; Interrupt Vectors
                                 
                                 
                                 
                                 
                                 
                                 
                                 
                                 
                                 
                                 
                                 
                                 
                                 
                                 
                                 
                                 
                                 
                                 
                                 
                                 
                                 
                                 
                                 
                                 
                                 
                                 
                                 
                                        
                                        ; Condition code register bits
                                 
                                 
                                 
                                 
                                 
                                 
                                 
                                        	.include "../inc/ascii.inc"
                                        ;;
                                        ; Copyright Jacques Deschênes 2019 
                                        ; This file is part of MONA 
                                        ;
                                        ;     MONA is free software: you can redistribute it and/or modify
                                        ;     it under the terms of the GNU General Public License as published by
                                        ;     the Free Software Foundation, either version 3 of the License, or
                                        ;     (at your option) any later version.
                                        ;
                                        ;     MONA is distributed in the hope that it will be useful,
                                        ;     but WITHOUT ANY WARRANTY; without even the implied warranty of
                                        ;     MERCHANTABILITY or FITNESS FOR A PARTICULAR PURPOSE.  See the
                                        ;     GNU General Public License for more details.
                                        ;
                                        ;     You should have received a copy of the GNU General Public License
                                        ;     along with MONA.  If not, see <http://www.gnu.org/licenses/>.
                                        ;;
                                        
                                        ;-------------------------------------------------------
                                        ;     ASCII control  values
                                        ;     CTRL_x   are VT100 keyboard values  
                                        ;-------------------------------------------------------
                                 
                                 
                                 
                                 
                                 
                                 
                                        
                                 
                                 
                                        
                                 
                                 
                                        
                                 
                                 
                                        
                                 
                                 
                                        
                                 
                                 
                                        
                                 
                                 
                                        
                                 
                                 
                                        
                                 
                                 
                                 
                                 
                                 
                                 
                                 
                                 
                                 
                                 
                                 
                                 
                                 
                                 
                                 
                                        	.include "mona.inc"
                                        ;;
                                        ; Copyright Jacques Deschênes 2019 
                                        ; This file is part of MONA 
                                        ;
                                        ;     MONA is free software: you can redistribute it and/or modify
                                        ;     it under the terms of the GNU General Public License as published by
                                        ;     the Free Software Foundation, either version 3 of the License, or
                                        ;     (at your option) any later version.
                                        ;
                                        ;     MONA is distributed in the hope that it will be useful,
                                        ;     but WITHOUT ANY WARRANTY; without even the implied warranty of
                                        ;     MERCHANTABILITY or FITNESS FOR A PARTICULAR PURPOSE.  See the
                                        ;     GNU General Public License for more details.
                                        ;
                                        ;     You should have received a copy of the GNU General Public License
                                        ;     along with MONA.  If not, see <http://www.gnu.org/licenses/>.
                                        ;;
                                        
                                        ;  MONA   MONitor written in Assembly
                                        	.module MONA 
                                            .optsdcc -mstm8
                                        ;	.nlist
                                        	.include "../inc/nucleo_8s208.inc"
                                        ;;
                                        ; Copyright Jacques Deschênes 2019 
                                        ; This file is part of MONA 
                                        ;
                                        ;     MONA is free software: you can redistribute it and/or modify
                                        ;     it under the terms of the GNU General Public License as published by
                                        ;     the Free Software Foundation, either version 3 of the License, or
                                        ;     (at your option) any later version.
                                        ;
                                        ;     MONA is distributed in the hope that it will be useful,
                                        ;     but WITHOUT ANY WARRANTY; without even the implied warranty of
                                        ;     MERCHANTABILITY or FITNESS FOR A PARTICULAR PURPOSE.  See the
                                        ;     GNU General Public License for more details.
                                        ;
                                        ;     You should have received a copy of the GNU General Public License
                                        ;     along with MONA.  If not, see <http://www.gnu.org/licenses/>.
                                        ;;
                                        ;;;;;;;;;;;;;;;;;;;;;;;;;;;;;;;;;;;;;;;;;;;;;;;;;
                                        ; NUCLEO-8S208RB board specific definitions
                                        ; Date: 2019/10/29
                                        ; author: Jacques Deschênes, copyright 2018,2019
                                        ; licence: GPLv3
                                        ;;;;;;;;;;;;;;;;;;;;;;;;;;;;;;;;;;;;;;;;;;;;;;;;;;
                                        
                                        ; mcu on board is stm8s208rbt6
                                        
                                        ; crystal on board is 8Mhz
                                 
                                        
                                        ; LED2 is user LED
                                        ; connected to PC5 via Q2 -> 2N7002 MOSFET
                                 
                                 
                                 
                                        
                                        ; B1 on schematic is user button
                                        ; connected to PE4
                                        ; external pullup resistor R6 4k7 and debounce capacitor C5 100nF
                                 
                                 
                                 
                                        
                                        
                                        	.include "../inc/stm8s208.inc"
                                        ;;
                                        ; Copyright Jacques Deschênes 2019 
                                        ; This file is part of MONA 
                                        ;
                                        ;     MONA is free software: you can redistribute it and/or modify
                                        ;     it under the terms of the GNU General Public License as published by
                                        ;     the Free Software Foundation, either version 3 of the License, or
                                        ;     (at your option) any later version.
                                        ;
                                        ;     MONA is distributed in the hope that it will be useful,
                                        ;     but WITHOUT ANY WARRANTY; without even the implied warranty of
                                        ;     MERCHANTABILITY or FITNESS FOR A PARTICULAR PURPOSE.  See the
                                        ;     GNU General Public License for more details.
                                        ;
                                        ;     You should have received a copy of the GNU General Public License
                                        ;     along with MONA.  If not, see <http://www.gnu.org/licenses/>.
                                        ;;
                                        ;;;;;;;;;;;;;;;;;;;;;;;;;;;;;;;;;;;
                                        ; 2019/10/18
                                        ; STM8S208RB µC registers map
                                        ; sdas source file
                                        ; author: Jacques Deschênes, copyright 2018,2019
                                        ; licence: GPLv3
                                        ;;;;;;;;;;;;;;;;;;;;;;;;;;;;;;;;;;;;
                                        	.module stm8s208rb
                                        
                                        ;;;;;;;;;;;;
                                        ; bits
                                        ;;;;;;;;;;;;
                                 
                                 
                                 
                                 
                                 
                                 
                                 
                                 
                                         	
                                        ;;;;;;;;;;;;
                                        ; bits masks
                                        ;;;;;;;;;;;;
                                 
                                 
                                 
                                 
                                 
                                 
                                 
                                 
                                        
                                        ; HSI oscillator frequency 16Mhz
                                 
                                        ; LSI oscillator frequency 128Khz
                                 
                                        
                                        ; controller memory regions
                                 
                                 
                                        ; STM8S208RB have 128K flash
                                 
                                        
                                 
                                 
                                 
                                 
                                 
                                 
                                 
                                 
                                 
                                 
                                 
                                 
                                 
                                 
                                 
                                 
                                        
                                        ; options bytes
                                        ; this one can be programmed only from SWIM  (ICP)
                                 
                                        ; these can be programmed at runtime (IAP)
                                 
                                 
                                 
                                 
                                 
                                 
                                 
                                 
                                 
                                 
                                 
                                 
                                 
                                 
                                 
                                 
                                        ; option registers usage
                                        ; read out protection, value 0xAA enable ROP
                                 
                                        ; user boot code, {0..0x3e} 512 bytes row
                                 
                                 
                                        ; alternate function register
                                 
                                 
                                        ; miscelinous options
                                 
                                 
                                        ; clock options
                                 
                                 
                                        ; HSE clock startup delay
                                 
                                 
                                        ; flash wait state
                                 
                                 
                                        
                                        ; watchdog options bits
                                 
                                 
                                 
                                 
                                        ; NWDGOPT bits
                                 
                                 
                                 
                                 
                                        
                                        ; CLKOPT bits
                                 
                                 
                                 
                                 
                                        
                                        ; AFR option, remapable functions
                                 
                                 
                                 
                                 
                                 
                                 
                                 
                                 
                                        
                                        ; device ID = (read only)
                                 
                                 
                                 
                                 
                                 
                                 
                                 
                                 
                                 
                                 
                                 
                                 
                                        
                                        
                                 
                                 
                                        ; PORTS SFR OFFSET
                                 
                                 
                                 
                                 
                                 
                                 
                                 
                                        
                                        ; GPIO
                                        ; gpio register offset to base
                                 
                                 
                                 
                                 
                                 
                                        
                                        ; port A
                                 
                                 
                                 
                                 
                                 
                                 
                                        ; port B
                                 
                                 
                                 
                                 
                                 
                                 
                                        ; port C
                                 
                                 
                                 
                                 
                                 
                                 
                                        ; port D
                                 
                                 
                                 
                                 
                                 
                                 
                                        ; port E
                                 
                                 
                                 
                                 
                                 
                                 
                                        ; port F
                                 
                                 
                                 
                                 
                                 
                                 
                                        ; port G
                                 
                                 
                                 
                                 
                                 
                                 
                                        ; port H not present on LQFP48/LQFP64 package
                                 
                                 
                                 
                                 
                                 
                                 
                                        ; port I ; only bit 0 on LQFP64 package, not present on LQFP48
                                 
                                 
                                 
                                 
                                 
                                 
                                        
                                        ; input modes CR1
                                 
                                 
                                        ; output mode CR1
                                 
                                 
                                        ; input modes CR2
                                 
                                 
                                        ; output speed CR2
                                 
                                 
                                        
                                        
                                        ; Flash memory
                                 
                                 
                                 
                                 
                                 
                                 
                                 
                                 
                                        ; data memory unlock keys
                                 
                                 
                                        ; flash memory unlock keys
                                 
                                 
                                        ; FLASH_CR1 bits
                                 
                                 
                                 
                                 
                                        ; FLASH_CR2 bits
                                 
                                 
                                 
                                 
                                 
                                        ; FLASH_FPR bits
                                 
                                 
                                 
                                 
                                 
                                 
                                        ; FLASH_NFPR bits
                                 
                                 
                                 
                                 
                                 
                                 
                                        ; FLASH_IAPSR bits
                                 
                                 
                                 
                                 
                                 
                                        
                                        ; Interrupt control
                                 
                                 
                                        
                                        ; Reset Status
                                 
                                        
                                        ; Clock Registers
                                 
                                 
                                 
                                 
                                 
                                 
                                 
                                 
                                 
                                 
                                 
                                 
                                        
                                        ; Peripherals clock gating
                                        ; CLK_PCKENR1 
                                 
                                 
                                 
                                 
                                 
                                 
                                 
                                 
                                        ; CLK_PCKENR2
                                 
                                 
                                 
                                        
                                        ; Clock bits
                                 
                                 
                                 
                                 
                                 
                                 
                                        
                                 
                                 
                                        ; clock source
                                 
                                 
                                 
                                        
                                 
                                 
                                 
                                 
                                        
                                 
                                 
                                 
                                 
                                 
                                        
                                        ; Watchdog
                                 
                                 
                                 
                                 
                                 
                                 
                                 
                                 
                                        
                                        ; Beeper
                                        ; beeper output is alternate function AFR7 on PD4
                                        ; connected to CN9-6
                                 
                                 
                                 
                                 
                                        
                                        ; SPI
                                 
                                 
                                 
                                 
                                 
                                 
                                 
                                 
                                        
                                        ; I2C
                                 
                                 
                                 
                                 
                                 
                                 
                                 
                                 
                                 
                                 
                                 
                                 
                                 
                                 
                                        
                                 
                                 
                                 
                                        
                                 
                                 
                                 
                                 
                                 
                                        
                                 
                                        
                                 
                                 
                                        
                                 
                                 
                                 
                                 
                                        
                                 
                                 
                                 
                                 
                                 
                                 
                                 
                                        
                                 
                                 
                                 
                                 
                                 
                                        
                                 
                                 
                                 
                                 
                                 
                                        
                                 
                                 
                                 
                                        
                                        ; Precalculated values, all in KHz
                                 
                                 
                                        ;
                                        ; Fast I2C mode max rise time = 300ns
                                        ; I2C_FREQR = 16 = (MHz) => tMASTER = 1/16 = 62.5 ns
                                        ; TRISER = = (300/62.5) + 1 = floor(4.8) + 1 = 5.
                                        
                                 
                                        
                                 
                                 
                                 
                                        
                                 
                                 
                                 
                                        
                                 
                                 
                                        ;
                                        ; Standard I2C mode max rise time = 1000ns
                                        ; I2C_FREQR = 16 = (MHz) => tMASTER = 1/16 = 62.5 ns
                                        ; TRISER = = (1000/62.5) + 1 = floor(16) + 1 = 17.
                                        
                                 
                                        
                                 
                                 
                                 
                                        
                                 
                                 
                                 
                                        
                                 
                                 
                                        
                                        ; baudrate constant for brr_value table access
                                 
                                 
                                 
                                 
                                 
                                 
                                 
                                 
                                 
                                 
                                        
                                        ; UART1 
                                 
                                 
                                 
                                 
                                 
                                 
                                 
                                 
                                 
                                 
                                 
                                        
                                        ; UART3
                                 
                                 
                                 
                                 
                                 
                                 
                                 
                                 
                                 
                                        
                                        ; UART Status Register bits
                                 
                                 
                                 
                                 
                                 
                                 
                                 
                                 
                                        
                                        ; Uart Control Register bits
                                 
                                 
                                 
                                 
                                 
                                 
                                 
                                 
                                        
                                 
                                 
                                 
                                 
                                 
                                 
                                 
                                 
                                        
                                 
                                 
                                 
                                 
                                 
                                 
                                 
                                        
                                 
                                 
                                 
                                 
                                 
                                 
                                 
                                        
                                 
                                 
                                 
                                 
                                 
                                        ; LIN mode config register
                                 
                                 
                                 
                                 
                                 
                                 
                                        
                                        ; TIMERS
                                        ; Timer 1 - 16-bit timer with complementary PWM outputs
                                 
                                 
                                 
                                 
                                 
                                 
                                 
                                 
                                 
                                 
                                 
                                 
                                 
                                 
                                 
                                 
                                 
                                 
                                 
                                 
                                 
                                 
                                 
                                 
                                 
                                 
                                 
                                 
                                 
                                 
                                 
                                 
                                        
                                        ; Timer Control Register bits
                                 
                                 
                                 
                                 
                                 
                                 
                                 
                                 
                                        
                                 
                                 
                                 
                                 
                                 
                                        
                                        ; Timer Slave Mode Control bits
                                 
                                 
                                 
                                 
                                 
                                 
                                 
                                        
                                        ; Timer External Trigger Enable bits
                                 
                                 
                                 
                                 
                                 
                                 
                                 
                                 
                                        
                                        ; Timer Interrupt Enable bits
                                 
                                 
                                 
                                 
                                 
                                 
                                 
                                 
                                        
                                        ; Timer Status Register bits
                                 
                                 
                                 
                                 
                                 
                                 
                                 
                                 
                                        
                                 
                                 
                                 
                                 
                                        
                                        ; Timer Event Generation Register bits
                                 
                                 
                                 
                                 
                                 
                                 
                                 
                                 
                                        
                                        ; Capture/Compare Mode Register 1 - channel configured in output
                                 
                                 
                                 
                                 
                                 
                                 
                                 
                                 
                                        
                                        ; Capture/Compare Mode Register 1 - channel configured in input
                                 
                                 
                                 
                                 
                                 
                                 
                                        ;  TIM1_CCMR1_CC1S1 = (1)
                                 
                                        
                                        ; Capture/Compare Mode Register 2 - channel configured in output
                                 
                                 
                                 
                                 
                                 
                                 
                                 
                                 
                                        
                                        ; Capture/Compare Mode Register 2 - channel configured in input
                                 
                                 
                                 
                                 
                                 
                                 
                                        ;  TIM1_CCMR2_CC2S1 = (1)
                                 
                                        
                                        ; Capture/Compare Mode Register 3 - channel configured in output
                                 
                                 
                                 
                                 
                                 
                                 
                                 
                                 
                                        
                                        ; Capture/Compare Mode Register 3 - channel configured in input
                                 
                                 
                                 
                                 
                                 
                                 
                                        ;  TIM1_CCMR3_CC3S1 = (1)
                                 
                                        
                                        ; Capture/Compare Mode Register 4 - channel configured in output
                                 
                                 
                                 
                                 
                                 
                                 
                                 
                                 
                                        
                                        ; Capture/Compare Mode Register 4 - channel configured in input
                                 
                                 
                                 
                                 
                                 
                                 
                                        ;  TIM1_CCMR4_CC4S1 = (1)
                                 
                                        
                                        ; Timer 2 - 16-bit timer
                                 
                                 
                                 
                                 
                                 
                                 
                                 
                                 
                                 
                                 
                                 
                                 
                                 
                                 
                                 
                                 
                                 
                                 
                                 
                                 
                                 
                                        
                                        ; Timer 3
                                 
                                 
                                 
                                 
                                 
                                 
                                 
                                 
                                 
                                 
                                 
                                 
                                 
                                 
                                 
                                 
                                 
                                        
                                        ; TIM3_CR1  fields
                                 
                                 
                                 
                                 
                                 
                                        ; TIM3_CCR2  fields
                                 
                                 
                                 
                                        ; TIM3_CCER1 fields
                                 
                                 
                                 
                                 
                                        ; TIM3_CCER2 fields
                                 
                                 
                                        
                                        ; Timer 4
                                 
                                 
                                 
                                 
                                 
                                 
                                 
                                        
                                        ; Timer 4 bitmasks
                                        
                                 
                                 
                                 
                                 
                                 
                                        
                                 
                                        
                                 
                                        
                                 
                                        
                                 
                                 
                                 
                                        
                                 
                                 
                                 
                                 
                                 
                                 
                                 
                                 
                                        
                                        ; ADC2
                                 
                                 
                                 
                                 
                                 
                                 
                                 
                                 
                                         
                                        ; ADC bitmasks
                                        
                                 
                                 
                                 
                                 
                                 
                                 
                                 
                                 
                                        
                                 
                                 
                                 
                                 
                                 
                                        
                                 
                                 
                                 
                                 
                                 
                                        
                                 
                                 
                                        
                                        ; beCAN
                                 
                                 
                                 
                                 
                                 
                                 
                                 
                                 
                                 
                                 
                                 
                                 
                                 
                                 
                                 
                                 
                                 
                                 
                                 
                                 
                                 
                                 
                                 
                                 
                                        
                                        
                                        ; CPU
                                 
                                 
                                 
                                 
                                 
                                 
                                 
                                 
                                 
                                 
                                 
                                        
                                        ; global configuration register
                                 
                                 
                                 
                                        
                                        ; interrupt control registers
                                 
                                 
                                 
                                 
                                 
                                 
                                 
                                 
                                        
                                        ; SWIM, control and status register
                                 
                                        ; debug registers
                                 
                                 
                                 
                                 
                                 
                                 
                                 
                                 
                                 
                                 
                                 
                                        
                                        ; Interrupt Numbers
                                 
                                 
                                 
                                 
                                 
                                 
                                 
                                 
                                 
                                 
                                 
                                 
                                 
                                 
                                 
                                 
                                 
                                 
                                 
                                 
                                 
                                 
                                 
                                 
                                 
                                        
                                        ; Interrupt Vectors
                                 
                                 
                                 
                                 
                                 
                                 
                                 
                                 
                                 
                                 
                                 
                                 
                                 
                                 
                                 
                                 
                                 
                                 
                                 
                                 
                                 
                                 
                                 
                                 
                                 
                                 
                                 
                                        
                                        ; Condition code register bits
                                 
                                 
                                 
                                 
                                 
                                 
                                 
                                        	.include "../inc/ascii.inc"
                                        ;;
                                        ; Copyright Jacques Deschênes 2019 
                                        ; This file is part of MONA 
                                        ;
                                        ;     MONA is free software: you can redistribute it and/or modify
                                        ;     it under the terms of the GNU General Public License as published by
                                        ;     the Free Software Foundation, either version 3 of the License, or
                                        ;     (at your option) any later version.
                                        ;
                                        ;     MONA is distributed in the hope that it will be useful,
                                        ;     but WITHOUT ANY WARRANTY; without even the implied warranty of
                                        ;     MERCHANTABILITY or FITNESS FOR A PARTICULAR PURPOSE.  See the
                                        ;     GNU General Public License for more details.
                                        ;
                                        ;     You should have received a copy of the GNU General Public License
                                        ;     along with MONA.  If not, see <http://www.gnu.org/licenses/>.
                                        ;;
                                        
                                        ;-------------------------------------------------------
                                        ;     ASCII control  values
                                        ;     CTRL_x   are VT100 keyboard values  
                                        ;-------------------------------------------------------
                                 
                                 
                                 
                                 
                                 
                                 
                                        
                                 
                                 
                                        
                                 
                                 
                                        
                                 
                                 
                                        
                                 
                                 
                                        
                                 
                                 
                                        
                                 
                                 
                                        
                                 
                                 
                                        
                                 
                                 
                                 
                                 
                                 
                                 
                                 
                                 
                                 
                                 
                                 
                                 
                                 
                                 
                                 
                                        ;	.list
                                        
                                        	.macro idx_tbl name value ptr  
                                        
                                        ;-------------------------------------
                                        ;   MONA global assembler constants 
                                        ;-------------------------------------
                                        
                                 
                                 
                                        
                                        ;------------------------------------------
                                        ;    boolean flags in variable 'flags'
                                        ;------------------------------------------
                                 
                                 
                                 
                                     29     .list 
                                     30 
                                     31     .area DATA 
      000000                         32 rx_char:: .blkb 1 ; last uart received char
      000001                         33 pad::	.blkb PAD_SIZE ; working pad
      000051                         34 acc24:: .blkb 1; acc24:acc16:acc8 form a 24 bits accumulator
      000052                         35 acc16:: .blkb 1; acc16:acc8 form a 24 bits accumulator 
      000053                         36 acc8::  .blkb 1; acc8 an 8 bit accumulator 
      000054                         37 farptr:: .blkb 3; 24 bits pointer
      000057                         38 flags::  .blkb 1; boolean flags
                                     39 
                                     40 
                                     41     .area CODE 
      000000 47 4C 4F 42 41 4C 53    42 .ascii "GLOBALS"
                                     43 ;--------------------------------
                                     44 ; <format> is a simplifide version
                                     45 ; of 'C' <printf>
                                     46 ; input:
                                     47 ;   Y       pointer to template string 
                                     48 ;   stack   all others paramaters are on 
                                     49 ;           stack. First argument is at (3,sp)
                                     50 ; output:
                                     51 ;   none
                                     52 ; use:
                                     53 ;   X       used as frame pointer  
                                     54 ; Detail:
                                     55 ;   template is a .asciz string with embedded <%c>
                                     56 ;   to indicate parameters positision. First <%c> 
                                     57 ;   from left correspond to first paramter.
                                     58 ;   'c' is one of these: 
                                     59 ;      'a' print a count of SPACE for alignement purpose     
                                     60 ;      'b' byte parameter  (int8_t)
                                     61 ;      'c' ASCII character
                                     62 ;      'e' 24 bits integer (int24_t) parameter
                                     63 ;      's' string (.asciz) parameter as long pointer (16 bits)
                                     64 ;      'w' word paramter (int16_t) 
                                     65 ;      others values of 'c' are printed as is.
                                     66 ;  These are sufficient for the requirement of
                                     67 ;  mona_dasm
                                     68 ;--------------------------------
                           000008    69     LOCAL_OFS=8 ; offset on stack of arguments frame 
      000007                         70 format::
                                     71 ; preserve X
      000007 89               [ 2]   72     pushw x 
ASxxxx Assembler V02.00 + NoICE + SDCC mods  (STMicroelectronics STM8), page 2.
Hexadecimal [24-Bits]



                                     73 ; preserve farptr
      000008 C6 00 56         [ 1]   74     ld a, farptr+2
      00000B 88               [ 1]   75     push a 
      00000C C6 00 55         [ 1]   76     ld a, farptr+1 
      00000F 88               [ 1]   77     push a 
      000010 C6 00 54         [ 1]   78     ld a, farptr
      000013 88               [ 1]   79     push a
                                     80 ; X used as frame pointer     
      000014 96               [ 1]   81     ldw x,sp 
      000015 1C 00 08         [ 2]   82     addw x,#LOCAL_OFS
      000018                         83 format_loop:    
      000018 90 F6            [ 1]   84     ld a,(y)
      00001A 26 03            [ 1]   85     jrne 1$
      00001C CC 00 98         [ 2]   86     jp format_exit
      00001F 90 5C            [ 1]   87 1$: incw y 
      000021 A1 25            [ 1]   88     cp a,#'%
      000023 27 05            [ 1]   89     jreq 2$
      000025 CD 00 B6         [ 4]   90     call uart_tx
      000028 20 EE            [ 2]   91     jra format_loop  
      00002A                         92 2$:
      00002A 90 F6            [ 1]   93     ld a,(y)
      00002C 27 6A            [ 1]   94     jreq format_exit 
      00002E 90 5C            [ 1]   95     incw y
      000030 A1 61            [ 1]   96     cp a,#'a' 
      000032 26 07            [ 1]   97     jrne 24$
      000034 F6               [ 1]   98     ld a,(x)
      000035 5C               [ 1]   99     incw x 
      000036 CD 00 A6         [ 4]  100     call spaces 
      000039 20 DD            [ 2]  101     jra format_loop 
      00003B                        102 24$:
      00003B A1 62            [ 1]  103     cp a,#'b'
      00003D 26 07            [ 1]  104     jrne 3$
                                    105 ; byte type paramter     
      00003F F6               [ 1]  106     ld a,(x)
      000040 5C               [ 1]  107     incw x 
      000041 CD 01 6D         [ 4]  108     call print_byte
      000044 20 D2            [ 2]  109     jra format_loop
      000046 A1 63            [ 1]  110 3$: cp a,#'c 
      000048 26 07            [ 1]  111     jrne 4$
                                    112 ; ASCII character 
      00004A F6               [ 1]  113     ld a,(x)
      00004B 5C               [ 1]  114     incw x 
      00004C CD 00 B6         [ 4]  115     call uart_tx 
      00004F 20 C7            [ 2]  116     jra format_loop         
      000051 A1 65            [ 1]  117 4$: cp a,#'e 
      000053 26 13            [ 1]  118     jrne 6$
                                    119 ; int24_t parameter     
      000055 90 89            [ 2]  120     pushw y 
      000057 F6               [ 1]  121     ld a,(x)
      000058 90 95            [ 1]  122     ld yh,a 
      00005A 5C               [ 1]  123     incw x
      00005B F6               [ 1]  124     ld a,(x)
      00005C 90 97            [ 1]  125     ld yl,a 
      00005E 5C               [ 1]  126     incw x 
      00005F F6               [ 1]  127     ld a,(x)
ASxxxx Assembler V02.00 + NoICE + SDCC mods  (STMicroelectronics STM8), page 3.
Hexadecimal [24-Bits]



      000060 5C               [ 1]  128     incw x 
      000061 CD 01 98         [ 4]  129     call print_extd
      000064 90 85            [ 2]  130     popw y  
      000066 20 B0            [ 2]  131     jra format_loop
      000068 A1 73            [ 1]  132 6$: cp a,#'s 
      00006A 26 10            [ 1]  133     jrne 8$
                                    134 ; string type parameter     
      00006C 90 89            [ 2]  135     pushw y
      00006E 90 93            [ 1]  136     ldw y,x 
      000070 1C 00 02         [ 2]  137     addw x,#2
      000073 90 FE            [ 2]  138     ldw y,(y)
      000075 CD 00 C0         [ 4]  139     call uart_print 
      000078 90 85            [ 2]  140 7$: popw y 
      00007A 20 9C            [ 2]  141     jra format_loop 
      00007C A1 77            [ 1]  142 8$: cp a,#'w 
      00007E 26 12            [ 1]  143     jrne 9$
                                    144 ; word type paramter     
      000080 90 89            [ 2]  145     pushw y 
      000082 F6               [ 1]  146     ld a,(x)
      000083 5C               [ 1]  147     incw x 
      000084 90 95            [ 1]  148     ld yh,a
      000086 F6               [ 1]  149     ld a,(x)
      000087 5C               [ 1]  150     incw x 
      000088 90 97            [ 1]  151     ld yl,a 
      00008A CD 01 83         [ 4]  152     call print_word 
      00008D 90 85            [ 2]  153     popw y 
      00008F CC 00 18         [ 2]  154     jp format_loop 
      000092 CD 00 B6         [ 4]  155 9$: call uart_tx         
      000095 CC 00 18         [ 2]  156     jp format_loop 
      000098                        157 format_exit:
                                    158 ; restore farptr 
      000098 84               [ 1]  159     pop a 
      000099 C7 00 54         [ 1]  160     ld farptr,a 
      00009C 84               [ 1]  161     pop a 
      00009D C7 00 55         [ 1]  162     ld farptr+1,a 
      0000A0 84               [ 1]  163     pop a 
      0000A1 C7 00 56         [ 1]  164     ld farptr+2,a 
      0000A4 85               [ 2]  165     popw x 
      0000A5 81               [ 4]  166     ret 
                                    167 
                                    168 ;------------------------------------
                                    169 ; print n spaces 
                                    170 ; input: 
                                    171 ;   A  		number of space to print 
                                    172 ; output:
                                    173 ;	none 
                                    174 ;------------------------------------
      0000A6                        175 spaces::
      0000A6 88               [ 1]  176 	push a 
      0000A7 A6 20            [ 1]  177 	ld a,#SPACE 
      0000A9 0D 01            [ 1]  178 1$:	tnz (1,sp)
      0000AB 27 07            [ 1]  179 	jreq 2$ 
      0000AD CD 00 B6         [ 4]  180 	call uart_tx 
      0000B0 0A 01            [ 1]  181 	dec (1,sp)
      0000B2 20 F5            [ 2]  182 	jra 1$
ASxxxx Assembler V02.00 + NoICE + SDCC mods  (STMicroelectronics STM8), page 4.
Hexadecimal [24-Bits]



      0000B4 84               [ 1]  183 2$:	pop a 
      0000B5 81               [ 4]  184 	ret
                                    185 
                                    186 
                                    187 ;------------------------------------
                                    188 ;  serial port communication routines
                                    189 ;------------------------------------
                                    190 ;------------------------------------
                                    191 ; transmit character in a via UART3
                                    192 ; character to transmit on (3,sp)
                                    193 ;------------------------------------
      0000B6                        194 uart_tx::
      0000B6 72 5D 52 40      [ 1]  195 	tnz UART3_SR
      0000BA 2A FA            [ 1]  196 	jrpl uart_tx
      0000BC C7 52 41         [ 1]  197 	ld UART3_DR,a
      0000BF 81               [ 4]  198     ret
                                    199 
                                    200 ;------------------------------------
                                    201 ; send string via UART2
                                    202 ; y is pointer to str
                                    203 ;------------------------------------
      0000C0                        204 uart_print::
                                    205 ; check for null pointer  
      0000C0 90 A3 00 00      [ 2]  206 	cpw y,#0
      0000C4 27 0B            [ 1]  207     jreq 1$ 
      0000C6 90 F6            [ 1]  208 0$: ld a,(y)
      0000C8 27 07            [ 1]  209 	jreq 1$
      0000CA CD 00 B6         [ 4]  210 	call uart_tx
      0000CD 90 5C            [ 1]  211 	incw y
      0000CF 20 F5            [ 2]  212 	jra 0$
      0000D1 81               [ 4]  213 1$: ret
                                    214 
                                    215 ;------------------------------------
                                    216 ; check if char available
                                    217 ;------------------------------------
      0000D2                        218 uart_qchar::
      0000D2 72 5D 00 00      [ 1]  219 	tnz rx_char
      0000D6 27 01            [ 1]  220 	jreq 1$
      0000D8 81               [ 4]  221     ret
      0000D9 A6 05            [ 1]  222 1$: ld a,#UART_SR_RXNE 
      0000DB C4 52 40         [ 1]  223 	and a,UART3_SR
      0000DE 81               [ 4]  224 	ret 
                                    225 
                                    226 ;------------------------------------
                                    227 ; return char in A to queue
                                    228 ;------------------------------------
                                    229 ;ungetchar:: 
      0000DF C7 00 00         [ 1]  230 	ld rx_char,a
      0000E2 81               [ 4]  231     ret
                                    232     
                                    233 ;------------------------------------
                                    234 ; wait for character from uart3
                                    235 ;------------------------------------
      0000E3                        236 uart_getchar::
                                    237 ; if there is a char in rx_char return it.
ASxxxx Assembler V02.00 + NoICE + SDCC mods  (STMicroelectronics STM8), page 5.
Hexadecimal [24-Bits]



      0000E3 C6 00 00         [ 1]  238 	ld a,rx_char 
      0000E6 27 05            [ 1]  239 	jreq 1$
      0000E8 72 5F 00 00      [ 1]  240 	clr rx_char
      0000EC 81               [ 4]  241 	ret
      0000ED 72 0B 52 40 FB   [ 2]  242 1$:	btjf UART3_SR,#UART_SR_RXNE,.
      0000F2 C6 52 41         [ 1]  243 	ld a, UART3_DR 
      0000F5 81               [ 4]  244 	ret
                                    245 
                                    246 ;------------------------------------
                                    247 ; delete n character from input line
                                    248 ;------------------------------------
      0000F6                        249 uart_delete::
      0000F6 88               [ 1]  250 	push a ; n 
      0000F7                        251 del_loop:
      0000F7 0D 01            [ 1]  252 	tnz (1,sp)
      0000F9 27 13            [ 1]  253 	jreq 1$
      0000FB A6 08            [ 1]  254 	ld a,#BSP
      0000FD CD 00 B6         [ 4]  255 	call uart_tx
      000100 A6 20            [ 1]  256     ld a,#SPACE
      000102 CD 00 B6         [ 4]  257     call uart_tx
      000105 A6 08            [ 1]  258     ld a,#BSP
      000107 CD 00 B6         [ 4]  259     call uart_tx
      00010A 0A 01            [ 1]  260     dec (1,sp)
      00010C 20 E9            [ 2]  261     jra del_loop
      00010E 84               [ 1]  262 1$: pop a
      00010F 81               [ 4]  263 	ret 
                                    264 
                                    265 ;-----------------------------------
                                    266 ; print a string (.asciz) pointed
                                    267 ; by a far pointer 
                                    268 ; input:
                                    269 ;   farptr    pointer to string 
                                    270 ; output:
                                    271 ;   none
                                    272 ;----------------------------------- 
      000110                        273 uart_prints::
      000110 90 89            [ 2]  274     pushw y 
      000112 90 5F            [ 1]  275     clrw y
      000114                        276 1$:
      000114 91 AF 00 54      [ 1]  277     ldf a,([farptr],y)
      000118 27 07            [ 1]  278     jreq 2$
      00011A CD 00 B6         [ 4]  279     call uart_tx 
      00011D 90 5C            [ 1]  280     incw y 
      00011F 20 F3            [ 2]  281     jra 1$
      000121                        282 2$:
      000121 90 85            [ 2]  283     popw y 
      000123 81               [ 4]  284     ret 
                                    285 
                                    286 ;------------------------------------
                                    287 ; print integer in acc24 
                                    288 ; input:
                                    289 ;	acc24 		integer to print 
                                    290 ;	A 			numerical base for conversion 
                                    291 ;   XL 			field width, 0 -> no fill.
                                    292 ;  output:
ASxxxx Assembler V02.00 + NoICE + SDCC mods  (STMicroelectronics STM8), page 6.
Hexadecimal [24-Bits]



                                    293 ;    none 
                                    294 ;------------------------------------
                           000002   295 	BASE = 2
                           000001   296 	WIDTH = 1
                           000002   297 	LOCAL_SIZE = 2
      000124                        298 print_int::
      000124 90 89            [ 2]  299 	pushw y 
      000126 52 02            [ 2]  300 	sub sp,#LOCAL_SIZE 
      000128 6B 02            [ 1]  301 	ld (BASE,sp),a 
      00012A 9F               [ 1]  302 	ld a,xl
      00012B 6B 01            [ 1]  303 	ld (WIDTH,sp),a 
      00012D 7B 02            [ 1]  304 	ld a, (BASE,sp)  
      00012F CD 01 C3         [ 4]  305     call itoa  ; conversion entier en  .asciz
      000132 C7 00 53         [ 1]  306 	ld acc8,a ; string length 
      000135 A6 10            [ 1]  307 	ld a,#16
      000137 11 02            [ 1]  308 	cp a,(BASE,sp)
      000139 26 0A            [ 1]  309 	jrne 1$
      00013B 90 5A            [ 2]  310 	decw y 
      00013D A6 24            [ 1]  311 	ld a,#'$
      00013F 90 F7            [ 1]  312 	ld (y),a
      000141 72 5C 00 53      [ 1]  313 	inc acc8 
      000145 7B 01            [ 1]  314 1$: ld a,(WIDTH,sp) 
      000147 27 17            [ 1]  315 	jreq 4$
      000149 C0 00 53         [ 1]  316 	sub a,acc8
      00014C 23 12            [ 2]  317 	jrule 4$
      00014E 6B 01            [ 1]  318 	ld (WIDTH,sp),a 
      000150 A6 20            [ 1]  319 	ld  a,#SPACE
      000152 0D 01            [ 1]  320 3$: tnz (WIDTH,sp)
      000154 27 0A            [ 1]  321 	jreq 4$
      000156 2B 08            [ 1]  322 	jrmi 4$
      000158 90 5A            [ 2]  323 	decw y 
      00015A 90 F7            [ 1]  324 	ld (y),a 
      00015C 0A 01            [ 1]  325 	dec (WIDTH,sp) 
      00015E 20 F2            [ 2]  326 	jra 3$
      000160 CD 00 C0         [ 4]  327 4$: call uart_print
      000163 A6 20            [ 1]  328 	ld a,#SPACE 
      000165 CD 00 B6         [ 4]  329 	call uart_tx 
      000168 5B 02            [ 2]  330     addw sp,#LOCAL_SIZE 
      00016A 90 85            [ 2]  331 	popw y 
      00016C 81               [ 4]  332     ret	
                                    333 
                                    334 ;----------------------------
                                    335 ; print byte in A 
                                    336 ; in hexadecimal format 
                                    337 ; input:
                                    338 ;   A	byte to print 
                                    339 ; use: 
                                    340 ;   XL		field width
                                    341 ;----------------------------
      00016D                        342 print_byte::
      00016D 89               [ 2]  343 	pushw x
      00016E C7 00 53         [ 1]  344 	ld acc8,a  
      000171 72 5F 00 51      [ 1]  345 	clr acc24 
      000175 72 5F 00 52      [ 1]  346 	clr acc16  
      000179 A6 03            [ 1]  347 	ld a,#3
ASxxxx Assembler V02.00 + NoICE + SDCC mods  (STMicroelectronics STM8), page 7.
Hexadecimal [24-Bits]



      00017B 97               [ 1]  348 	ld xl,a
      00017C A6 10            [ 1]  349 	ld a,#16
      00017E CD 01 24         [ 4]  350 	call print_int 
      000181 85               [ 2]  351 	popw x 
      000182 81               [ 4]  352 	ret 
                                    353 
                                    354 ;----------------------------
                                    355 ; print word in Y  
                                    356 ; in hexadecimal format 
                                    357 ; input:
                                    358 ;   Y	word to print 
                                    359 ; use: 
                                    360 ;   A       conversion base 
                                    361 ;   XL		field width
                                    362 ;----------------------------
      000183                        363 print_word::
      000183 88               [ 1]  364 	push A 
      000184 89               [ 2]  365 	pushw x
      000185 90 CF 00 52      [ 2]  366 	ldw acc16,y  
      000189 72 5F 00 51      [ 1]  367 	clr acc24 
      00018D A6 05            [ 1]  368 	ld a,#5
      00018F 97               [ 1]  369 	ld xl,a
      000190 A6 10            [ 1]  370 	ld a,#16
      000192 CD 01 24         [ 4]  371 	call print_int 
      000195 85               [ 2]  372 	popw x 
      000196 84               [ 1]  373 	pop a 
      000197 81               [ 4]  374 	ret 
                                    375 
                                    376 ;----------------------------
                                    377 ; print 24 bits integer in Y:A 
                                    378 ; in hexadecimal format 
                                    379 ; input:
                                    380 ;   Y	bits 23:16 
                                    381 ;   A   bits 7:0
                                    382 ; use: 
                                    383 ;   A       conversion base 
                                    384 ;   XL		field width
                                    385 ;----------------------------
      000198                        386 print_extd::
      000198 C7 00 53         [ 1]  387     ld acc8,a 
      00019B 90 CF 00 51      [ 2]  388     ldw acc24,y 
      00019F 89               [ 2]  389     pushw x 
      0001A0 A6 07            [ 1]  390     ld a,#7
      0001A2 97               [ 1]  391     ld xl,a 
      0001A3 A6 10            [ 1]  392     ld a,#16 
      0001A5 CD 01 24         [ 4]  393     call print_int 
      0001A8 85               [ 2]  394     popw x 
      0001A9 81               [ 4]  395     ret 
                                    396 
                                    397 ;------------------------------------
                                    398 ; print *farptr
                                    399 ; input:
                                    400 ;    *farptr 
                                    401 ; use:
                                    402 ;	acc24	itoa conversion 
ASxxxx Assembler V02.00 + NoICE + SDCC mods  (STMicroelectronics STM8), page 8.
Hexadecimal [24-Bits]



                                    403 ;   A 		conversion base
                                    404 ;   XL		field width 
                                    405 ;------------------------------------
      0001AA                        406 print_addr::
      0001AA 89               [ 2]  407 	pushw x
      0001AB 88               [ 1]  408 	push a 
      0001AC CE 00 54         [ 2]  409 	ldw x, farptr 
      0001AF CF 00 51         [ 2]  410 	ldw acc24,x 
      0001B2 C6 00 56         [ 1]  411 	ld a,farptr+2 
      0001B5 C7 00 53         [ 1]  412 	ld acc8,a 
      0001B8 A6 06            [ 1]  413 	ld a,#6  
      0001BA 97               [ 1]  414 	ld xl, a  ; field width 
      0001BB A6 10            [ 1]  415 	ld a,#16 ; convert in hexadecimal 
      0001BD CD 01 24         [ 4]  416 	call print_int 
      0001C0 84               [ 1]  417 	pop a 
      0001C1 85               [ 2]  418 	popw x 
      0001C2 81               [ 4]  419 	ret 
                                    420 
                                    421 ;------------------------------------
                                    422 ; convert integer to string
                                    423 ; input:
                                    424 ;   A	  	base
                                    425 ;	acc24	integer to convert
                                    426 ; output:
                                    427 ;   y  		pointer to string
                                    428 ;   A 		string length 
                                    429 ;------------------------------------
                           000001   430 	SIGN=1  ; integer sign 
                           000002   431 	BASE=2  ; numeric base 
                           000002   432 	LOCAL_SIZE=2  ;locals size
      0001C3                        433 itoa::
      0001C3 52 02            [ 2]  434 	sub sp,#LOCAL_SIZE
      0001C5 6B 02            [ 1]  435 	ld (BASE,sp), a  ; base
      0001C7 0F 01            [ 1]  436 	clr (SIGN,sp)    ; sign
      0001C9 A1 0A            [ 1]  437 	cp a,#10
      0001CB 26 0A            [ 1]  438 	jrne 1$
                                    439 	; base 10 string display with negative sign if bit 23==1
      0001CD 72 0F 00 51 05   [ 2]  440 	btjf acc24,#7,1$
      0001D2 03 01            [ 1]  441 	cpl (SIGN,sp)
      0001D4 CD 00 00         [ 4]  442 	call neg_acc24
      0001D7                        443 1$:
                                    444 ; initialize string pointer 
      0001D7 90 AE 00 50      [ 2]  445 	ldw y,#pad+PAD_SIZE-1
      0001DB 90 7F            [ 1]  446 	clr (y)
      0001DD                        447 itoa_loop:
      0001DD 7B 02            [ 1]  448     ld a,(BASE,sp)
      0001DF CD 00 00         [ 4]  449     call divu24_8 ; acc24/A 
      0001E2 AB 30            [ 1]  450     add a,#'0  ; remainder of division
      0001E4 A1 3A            [ 1]  451     cp a,#'9+1
      0001E6 2B 02            [ 1]  452     jrmi 2$
      0001E8 AB 07            [ 1]  453     add a,#7 
      0001EA 90 5A            [ 2]  454 2$: decw y
      0001EC 90 F7            [ 1]  455     ld (y),a
                                    456 	; if acc24==0 conversion done
      0001EE C6 00 51         [ 1]  457 	ld a,acc24
ASxxxx Assembler V02.00 + NoICE + SDCC mods  (STMicroelectronics STM8), page 9.
Hexadecimal [24-Bits]



      0001F1 CA 00 52         [ 1]  458 	or a,acc16
      0001F4 CA 00 53         [ 1]  459 	or a,acc8
      0001F7 26 E4            [ 1]  460     jrne itoa_loop
                                    461 	;conversion done, next add '$' or '-' as required
      0001F9 7B 02            [ 1]  462 	ld a,(BASE,sp)
      0001FB A1 10            [ 1]  463 	cp a,#16
      0001FD 27 0A            [ 1]  464 	jreq 10$
      0001FF 7B 01            [ 1]  465     ld a,(SIGN,sp)
      000201 27 06            [ 1]  466     jreq 10$
      000203 90 5A            [ 2]  467     decw y
      000205 A6 2D            [ 1]  468     ld a,#'-
      000207 90 F7            [ 1]  469     ld (y),a
      000209                        470 10$:
      000209 5B 02            [ 2]  471 	addw sp,#LOCAL_SIZE
      00020B CD 00 00         [ 4]  472 	call strlen
      00020E 81               [ 4]  473 	ret
                                    474 
