ASxxxx Linker V03.00 + NoICE + sdld,  page 1.
Hexadecimal  [32-Bits]

Area                                    Addr        Size        Decimal Bytes (Attributes)
--------------------------------        ----        ----        ------- ----- ------------
.  .ABS.                            00000000    00000000 =           0. bytes (ABS,CON)

      Value  Global                              Global Defined In Module
      -----  --------------------------------   ------------------------
     FFFFFFFF  s_SSEG                          
     00000000  .__.ABS.                           MATH24
     00000000  l_SSEG                          
     00000000  l__CODE                         
     00000000  s_SSEG0                         
     00000000  s__CODE                         
     00000001  s_DATA                          
     00000080  l_HOME                          
     000000D1  l_DATA                          
     00000100  l_SSEG0                         
     00000F08  l_CODE                          
     00008000  s_HOME                          
     00008080  s_CODE                          

ASxxxx Linker V03.00 + NoICE + sdld,  page 2.
Hexadecimal  [32-Bits]

Area                                    Addr        Size        Decimal Bytes (Attributes)
--------------------------------        ----        ----        ------- ----- ------------
DATA                                00000001    000000D1 =         209. bytes (REL,CON)

      Value  Global                              Global Defined In Module
      -----  --------------------------------   ------------------------
     00000067  acc24                              TEST_HELP
     00000068  acc16                              TEST_HELP
     00000069  acc8                               TEST_HELP
     000000C2  fmt_buffer                         CONIO

ASxxxx Linker V03.00 + NoICE + sdld,  page 3.
Hexadecimal  [32-Bits]

Area                                    Addr        Size        Decimal Bytes (Attributes)
--------------------------------        ----        ----        ------- ----- ------------
SSEG0                               00000000    00000100 =         256. bytes (ABS,CON)

      Value  Global                              Global Defined In Module
      -----  --------------------------------   ------------------------
ASxxxx Linker V03.00 + NoICE + sdld,  page 4.
Hexadecimal  [32-Bits]

Area                                    Addr        Size        Decimal Bytes (Attributes)
--------------------------------        ----        ----        ------- ----- ------------
HOME                                00008000    00000080 =         128. bytes (REL,CON)

      Value  Global                              Global Defined In Module
      -----  --------------------------------   ------------------------
ASxxxx Linker V03.00 + NoICE + sdld,  page 5.
Hexadecimal  [32-Bits]

Area                                    Addr        Size        Decimal Bytes (Attributes)
--------------------------------        ----        ----        ------- ----- ------------
CODE                                00008080    00000F08 =        3848. bytes (REL,CON)

      Value  Global                              Global Defined In Module
      -----  --------------------------------   ------------------------
     000080BA  uart3_putc                         TEST_HELP
     000080C3  uart3_getc                         TEST_HELP
     000080CC  uart3_puts                         TEST_HELP
     000080F6  uart3_prt_regs                     TEST_HELP
     0000815B  uart3_peek                         TEST_HELP
     00008198  _main                              TEST_HELP
     00008198  main                               TEST_HELP
     0000819D  _ledon                             TEST_HELP
     0000819D  ledon                              TEST_HELP
     000081A2  _ledoff                            TEST_HELP
     000081A2  ledoff                             TEST_HELP
     000081A7  _ledtoggle                         TEST_HELP
     000081A7  ledtoggle                          TEST_HELP
     000082DD  uart3_prti24                       TEST_HELP
     00008326  itoa                               TEST_HELP
     000084D5  number                             TEST_HELP
     000084DC  next_word                          TEST_HELP
     00008507  to_lower                           TEST_HELP
     000085CF  test_main                          STRING_TEST
     00008844  _format                            STRING
     00008844  format                             STRING
     00008914  _i24toa                            STRING
     00008914  i24toa                             STRING
     0000897A  _atoi24                            STRING
     0000897A  atoi24                             STRING
     000089FE  _strlen                            STRING
     000089FE  strlen                             STRING
     00008A0A  _fill                              STRING
     00008A0A  fill                               STRING
     00008A19  _strcpy                            STRING
     00008A19  strcpy                             STRING
     00008A31  _memcpy                            STRING
     00008A31  memcpy                             STRING
     00008A78  _conio_init                        CONIO
     00008A78  conio_init                         CONIO
     00008A80  set_dev                            CONIO
     00008A86  get_dev                            CONIO
     00008A8A  _putchar                           CONIO
     00008A8A  putchar                            CONIO
     00008A9D  _getchar                           CONIO
     00008A9D  getchar                            CONIO
     00008AA7  _puts                              CONIO
     00008AA7  puts                               CONIO
     00008AC1  _gets                              CONIO
     00008AC1  gets                               CONIO
     00008B6A  _is_digit                          CONIO
     00008B6A  is_digit                           CONIO
     00008B76  _is_hex                            CONIO
     00008B76  is_hex                             CONIO
     00008B8A  _printf                            CONIO
ASxxxx Linker V03.00 + NoICE + sdld,  page 6.
Hexadecimal  [32-Bits]

Area                                    Addr        Size        Decimal Bytes (Attributes)
--------------------------------        ----        ----        ------- ----- ------------
CODE                                00008080    00000F08 =        3848. bytes (REL,CON)

      Value  Global                              Global Defined In Module
      -----  --------------------------------   ------------------------
     00008B8A  printf                             CONIO
     00008CA4  _uart_init                         UART
     00008CA4  uart_init                          UART
     00008CF4  _uart_putc                         UART
     00008CF4  uart_putc                          UART
     00008D04  _uart_spaces                       UART
     00008D04  uart_spaces                        UART
     00008D18  _uart_puts                         UART
     00008D18  uart_puts                          UART
     00008D45  _uart_query                        UART
     00008D45  uart_query                         UART
     00008D55  _uart_getc                         UART
     00008D55  uart_getc                          UART
     00008D65  _uart_delete                       UART
     00008D65  uart_delete                        UART
     00008D87  add24                              MATH24
     00008D94  sub24                              MATH24
     00008DA1  mul24_8u                           MATH24
     00008DCA  mul24u                             MATH24
     00008E0E  mul24s                             MATH24
     00008E41  div24_8u                           MATH24
     00008E57  clz24                              MATH24
     00008E73  div24u                             MATH24
     00008EFF  div24s                             MATH24
     00008F80  neg24                              MATH24
ASxxxx Linker V03.00 + NoICE + sdld,  page 7.

Files Linked                              [ module(s) ]

../build/test_help.rel                    [ TEST_HELP ]
build/string_test.rel                     [ STRING_TEST ]


Libraries Linked                          [ object file ]

../../lib/string.lib                      [ string.rel ]
../../lib/conio.lib                       [ conio.rel ]
../../lib/uart.lib                        [ uart.rel ]
../../lib/math24.lib                      [ math24.rel ]

ASxxxx Linker V03.00 + NoICE + sdld,  page 8.

User Base Address Definitions

HOME = 0x8000
DATA = 0x0001
SSEG = 0xffffffff

