ASxxxx Assembler V02.00 + NoICE + SDCC mods  (STMicroelectronics STM8), page 1.
Hexadecimal [24-Bits]



                                      1 ;;;;;;;;;;;;;;;;;;;;;;;;;;;;;;;;;;;;;;;;;;;;;;;;;;;;;;;;;;;;;;
                                      2 ;   librairie de fonctions arithmétiques sur entiers 24 bits.
                                      3 ;   Date: 2019-11-28
                                      4 ;   Copyright Jacques Deschêens, 2019
                                      5 ;   licence:  GPL v3 
                                      6 ;
                                      7 ;   Description: 
                                      8 ;       *  add24    addition. résultat dans X:A
                                      9 ;       *  sub24    soustraciton. résutlat dans X:A 
                                     10 ;       *  mul24    multiplication non signée. résultat dans X:A
                                     11 ;       *  div24    divisition non signée 24b/16b quotient dans X:A reste dans Y
                                     12 ;       *  neg24    complément à 2 d'un entier 24b. résutlant dans X:A 
                                     13 ;       Le résultat est retourné dans X:A, les 16 bits les plus
                                     14 ;       significatifs sont dans X et les 8 moins significatifs dans
                                     15 ;       A. 
                                     16 ;;;;;;;;;;;;;;;;;;;;;;;;;;;;;;;;;;;;;;;;;;;;;;;;;;;;;;;;;;;;;;
                                     17     .module MATH24
                                            .include "../../inc/nucleo_8s208.inc"
                                        ;;
                                        ; Copyright Jacques Deschênes 2019 
                                        ; This file is part of MONA 
                                        ;
                                        ;     MONA is free software: you can redistribute it and/or modify
                                        ;     it under the terms of the GNU General Public License as published by
                                        ;     the Free Software Foundation, either version 3 of the License, or
                                        ;     (at your option) any later version.
                                        ;
                                        ;     MONA is distributed in the hope that it will be useful,
                                        ;     but WITHOUT ANY WARRANTY; without even the implied warranty of
                                        ;     MERCHANTABILITY or FITNESS FOR A PARTICULAR PURPOSE.  See the
                                        ;     GNU General Public License for more details.
                                        ;
                                        ;     You should have received a copy of the GNU General Public License
                                        ;     along with MONA.  If not, see <http://www.gnu.org/licenses/>.
                                        ;;
                                        ;;;;;;;;;;;;;;;;;;;;;;;;;;;;;;;;;;;;;;;;;;;;;;;;;
                                        ; NUCLEO-8S208RB board specific definitions
                                        ; Date: 2019/10/29
                                        ; author: Jacques Deschênes, copyright 2018,2019
                                        ; licence: GPLv3
                                        ;;;;;;;;;;;;;;;;;;;;;;;;;;;;;;;;;;;;;;;;;;;;;;;;;;
                                        
                                        ; mcu on board is stm8s208rbt6
                                        
                                        ; crystal on board is 8Mhz
                                 
                                        
                                        ; LED2 is user LED
                                        ; connected to PC5 via Q2 -> 2N7002 MOSFET
                                 
                                 
                                 
                                        
                                        ; B1 on schematic is user button
                                        ; connected to PE4
                                        ; external pullup resistor R6 4k7 and debounce capacitor C5 100nF
                                 
                                 
                                 
                                        
                                        
                                            .include "../../inc/stm8s208.inc"
                                        ;;
                                        ; Copyright Jacques Deschênes 2019 
                                        ; This file is part of MONA 
                                        ;
                                        ;     MONA is free software: you can redistribute it and/or modify
                                        ;     it under the terms of the GNU General Public License as published by
                                        ;     the Free Software Foundation, either version 3 of the License, or
                                        ;     (at your option) any later version.
                                        ;
                                        ;     MONA is distributed in the hope that it will be useful,
                                        ;     but WITHOUT ANY WARRANTY; without even the implied warranty of
                                        ;     MERCHANTABILITY or FITNESS FOR A PARTICULAR PURPOSE.  See the
                                        ;     GNU General Public License for more details.
                                        ;
                                        ;     You should have received a copy of the GNU General Public License
                                        ;     along with MONA.  If not, see <http://www.gnu.org/licenses/>.
                                        ;;
                                        ;;;;;;;;;;;;;;;;;;;;;;;;;;;;;;;;;;;
                                        ; 2019/10/18
                                        ; STM8S208RB µC registers map
                                        ; sdas source file
                                        ; author: Jacques Deschênes, copyright 2018,2019
                                        ; licence: GPLv3
                                        ;;;;;;;;;;;;;;;;;;;;;;;;;;;;;;;;;;;;
                                        	.module stm8s208rb
                                        
                                        ;;;;;;;;;;;;
                                        ; bits
                                        ;;;;;;;;;;;;
                                 
                                 
                                 
                                 
                                 
                                 
                                 
                                 
                                         	
                                        ;;;;;;;;;;;;
                                        ; bits masks
                                        ;;;;;;;;;;;;
                                 
                                 
                                 
                                 
                                 
                                 
                                 
                                 
                                        
                                        ; HSI oscillator frequency 16Mhz
                                 
                                        ; LSI oscillator frequency 128Khz
                                 
                                        
                                        ; controller memory regions
                                 
                                 
                                        ; STM8S208RB have 128K flash
                                 
                                        
                                 
                                 
                                 
                                 
                                 
                                 
                                 
                                 
                                 
                                 
                                 
                                 
                                 
                                 
                                 
                                 
                                        
                                        ; options bytes
                                        ; this one can be programmed only from SWIM  (ICP)
                                 
                                        ; these can be programmed at runtime (IAP)
                                 
                                 
                                 
                                 
                                 
                                 
                                 
                                 
                                 
                                 
                                 
                                 
                                 
                                 
                                 
                                 
                                        ; option registers usage
                                        ; read out protection, value 0xAA enable ROP
                                 
                                        ; user boot code, {0..0x3e} 512 bytes row
                                 
                                 
                                        ; alternate function register
                                 
                                 
                                        ; miscelinous options
                                 
                                 
                                        ; clock options
                                 
                                 
                                        ; HSE clock startup delay
                                 
                                 
                                        ; flash wait state
                                 
                                 
                                        
                                        ; watchdog options bits
                                 
                                 
                                 
                                 
                                        ; NWDGOPT bits
                                 
                                 
                                 
                                 
                                        
                                        ; CLKOPT bits
                                 
                                 
                                 
                                 
                                        
                                        ; AFR option, remapable functions
                                 
                                 
                                 
                                 
                                 
                                 
                                 
                                 
                                        
                                        ; device ID = (read only)
                                 
                                 
                                 
                                 
                                 
                                 
                                 
                                 
                                 
                                 
                                 
                                 
                                        
                                        
                                 
                                 
                                        ; PORTS SFR OFFSET
                                 
                                 
                                 
                                 
                                 
                                 
                                 
                                        
                                        ; GPIO
                                        ; gpio register offset to base
                                 
                                 
                                 
                                 
                                 
                                        
                                        ; port A
                                 
                                 
                                 
                                 
                                 
                                 
                                        ; port B
                                 
                                 
                                 
                                 
                                 
                                 
                                        ; port C
                                 
                                 
                                 
                                 
                                 
                                 
                                        ; port D
                                 
                                 
                                 
                                 
                                 
                                 
                                        ; port E
                                 
                                 
                                 
                                 
                                 
                                 
                                        ; port F
                                 
                                 
                                 
                                 
                                 
                                 
                                        ; port G
                                 
                                 
                                 
                                 
                                 
                                 
                                        ; port H not present on LQFP48/LQFP64 package
                                 
                                 
                                 
                                 
                                 
                                 
                                        ; port I ; only bit 0 on LQFP64 package, not present on LQFP48
                                 
                                 
                                 
                                 
                                 
                                 
                                        
                                        ; input modes CR1
                                 
                                 
                                        ; output mode CR1
                                 
                                 
                                        ; input modes CR2
                                 
                                 
                                        ; output speed CR2
                                 
                                 
                                        
                                        
                                        ; Flash memory
                                 
                                 
                                 
                                 
                                 
                                 
                                 
                                 
                                        ; data memory unlock keys
                                 
                                 
                                        ; flash memory unlock keys
                                 
                                 
                                        ; FLASH_CR1 bits
                                 
                                 
                                 
                                 
                                        ; FLASH_CR2 bits
                                 
                                 
                                 
                                 
                                 
                                        ; FLASH_FPR bits
                                 
                                 
                                 
                                 
                                 
                                 
                                        ; FLASH_NFPR bits
                                 
                                 
                                 
                                 
                                 
                                 
                                        ; FLASH_IAPSR bits
                                 
                                 
                                 
                                 
                                 
                                        
                                        ; Interrupt control
                                 
                                 
                                        
                                        ; Reset Status
                                 
                                        
                                        ; Clock Registers
                                 
                                 
                                 
                                 
                                 
                                 
                                 
                                 
                                 
                                 
                                 
                                 
                                        
                                        ; Peripherals clock gating
                                        ; CLK_PCKENR1 
                                 
                                 
                                 
                                 
                                 
                                 
                                 
                                 
                                        ; CLK_PCKENR2
                                 
                                 
                                 
                                        
                                        ; Clock bits
                                 
                                 
                                 
                                 
                                 
                                 
                                        
                                 
                                 
                                        ; clock source
                                 
                                 
                                 
                                        
                                 
                                 
                                 
                                 
                                        
                                 
                                 
                                 
                                 
                                 
                                        
                                        ; Watchdog
                                 
                                 
                                 
                                 
                                 
                                 
                                 
                                 
                                        
                                        ; Beeper
                                        ; beeper output is alternate function AFR7 on PD4
                                        ; connected to CN9-6
                                 
                                 
                                 
                                 
                                        
                                        ; SPI
                                 
                                 
                                 
                                 
                                 
                                 
                                 
                                 
                                        
                                        ; I2C
                                 
                                 
                                 
                                 
                                 
                                 
                                 
                                 
                                 
                                 
                                 
                                 
                                 
                                 
                                        
                                 
                                 
                                 
                                        
                                 
                                 
                                 
                                 
                                 
                                        
                                 
                                        
                                 
                                 
                                        
                                 
                                 
                                 
                                 
                                        
                                 
                                 
                                 
                                 
                                 
                                 
                                 
                                        
                                 
                                 
                                 
                                 
                                 
                                        
                                 
                                 
                                 
                                 
                                 
                                        
                                 
                                 
                                 
                                        
                                        ; Precalculated values, all in KHz
                                 
                                 
                                        ;
                                        ; Fast I2C mode max rise time = 300ns
                                        ; I2C_FREQR = 16 = (MHz) => tMASTER = 1/16 = 62.5 ns
                                        ; TRISER = = (300/62.5) + 1 = floor(4.8) + 1 = 5.
                                        
                                 
                                        
                                 
                                 
                                 
                                        
                                 
                                 
                                 
                                        
                                 
                                 
                                        ;
                                        ; Standard I2C mode max rise time = 1000ns
                                        ; I2C_FREQR = 16 = (MHz) => tMASTER = 1/16 = 62.5 ns
                                        ; TRISER = = (1000/62.5) + 1 = floor(16) + 1 = 17.
                                        
                                 
                                        
                                 
                                 
                                 
                                        
                                 
                                 
                                 
                                        
                                 
                                 
                                        
                                        ; baudrate constant for brr_value table access
                                        ; to be used by uart_init 
                                 
                                 
                                 
                                 
                                 
                                 
                                 
                                 
                                 
                                 
                                        
                                        ; UART registers offset from
                                        ; base address 
                                 
                                 
                                 
                                 
                                 
                                 
                                 
                                 
                                 
                                 
                                 
                                 
                                        
                                        ; uart identifier
                                        ; to be used by uart_init
                                 
                                 
                                        
                                        ; pins used by uart 
                                 
                                 
                                 
                                 
                                        ; uart port base address 
                                 
                                 
                                        
                                        ; UART1 
                                 
                                 
                                 
                                 
                                 
                                 
                                 
                                 
                                 
                                 
                                 
                                 
                                        
                                        ; UART3
                                 
                                 
                                 
                                 
                                 
                                 
                                 
                                 
                                 
                                 
                                        
                                        ; UART Status Register bits
                                 
                                 
                                 
                                 
                                 
                                 
                                 
                                 
                                        
                                        ; Uart Control Register bits
                                 
                                 
                                 
                                 
                                 
                                 
                                 
                                 
                                        
                                 
                                 
                                 
                                 
                                 
                                 
                                 
                                 
                                        
                                 
                                 
                                 
                                 
                                 
                                 
                                 
                                        
                                 
                                 
                                 
                                 
                                 
                                 
                                 
                                        
                                 
                                 
                                 
                                 
                                 
                                        ; LIN mode config register
                                 
                                 
                                 
                                 
                                 
                                 
                                        
                                        ; TIMERS
                                        ; Timer 1 - 16-bit timer with complementary PWM outputs
                                 
                                 
                                 
                                 
                                 
                                 
                                 
                                 
                                 
                                 
                                 
                                 
                                 
                                 
                                 
                                 
                                 
                                 
                                 
                                 
                                 
                                 
                                 
                                 
                                 
                                 
                                 
                                 
                                 
                                 
                                 
                                 
                                        
                                        ; Timer Control Register bits
                                 
                                 
                                 
                                 
                                 
                                 
                                 
                                 
                                        
                                 
                                 
                                 
                                 
                                 
                                        
                                        ; Timer Slave Mode Control bits
                                 
                                 
                                 
                                 
                                 
                                 
                                 
                                        
                                        ; Timer External Trigger Enable bits
                                 
                                 
                                 
                                 
                                 
                                 
                                 
                                 
                                        
                                        ; Timer Interrupt Enable bits
                                 
                                 
                                 
                                 
                                 
                                 
                                 
                                 
                                        
                                        ; Timer Status Register bits
                                 
                                 
                                 
                                 
                                 
                                 
                                 
                                 
                                        
                                 
                                 
                                 
                                 
                                        
                                        ; Timer Event Generation Register bits
                                 
                                 
                                 
                                 
                                 
                                 
                                 
                                 
                                        
                                        ; Capture/Compare Mode Register 1 - channel configured in output
                                 
                                 
                                 
                                 
                                 
                                 
                                 
                                 
                                        
                                        ; Capture/Compare Mode Register 1 - channel configured in input
                                 
                                 
                                 
                                 
                                 
                                 
                                        ;  TIM1_CCMR1_CC1S1 = (1)
                                 
                                        
                                        ; Capture/Compare Mode Register 2 - channel configured in output
                                 
                                 
                                 
                                 
                                 
                                 
                                 
                                 
                                        
                                        ; Capture/Compare Mode Register 2 - channel configured in input
                                 
                                 
                                 
                                 
                                 
                                 
                                        ;  TIM1_CCMR2_CC2S1 = (1)
                                 
                                        
                                        ; Capture/Compare Mode Register 3 - channel configured in output
                                 
                                 
                                 
                                 
                                 
                                 
                                 
                                 
                                        
                                        ; Capture/Compare Mode Register 3 - channel configured in input
                                 
                                 
                                 
                                 
                                 
                                 
                                        ;  TIM1_CCMR3_CC3S1 = (1)
                                 
                                        
                                        ; Capture/Compare Mode Register 4 - channel configured in output
                                 
                                 
                                 
                                 
                                 
                                 
                                 
                                 
                                        
                                        ; Capture/Compare Mode Register 4 - channel configured in input
                                 
                                 
                                 
                                 
                                 
                                 
                                        ;  TIM1_CCMR4_CC4S1 = (1)
                                 
                                        
                                        ; Timer 2 - 16-bit timer
                                 
                                 
                                 
                                 
                                 
                                 
                                 
                                 
                                 
                                 
                                 
                                 
                                 
                                 
                                 
                                 
                                 
                                 
                                 
                                 
                                 
                                        
                                        ; Timer 3
                                 
                                 
                                 
                                 
                                 
                                 
                                 
                                 
                                 
                                 
                                 
                                 
                                 
                                 
                                 
                                 
                                 
                                        
                                        ; TIM3_CR1  fields
                                 
                                 
                                 
                                 
                                 
                                        ; TIM3_CCR2  fields
                                 
                                 
                                 
                                        ; TIM3_CCER1 fields
                                 
                                 
                                 
                                 
                                        ; TIM3_CCER2 fields
                                 
                                 
                                        
                                        ; Timer 4
                                 
                                 
                                 
                                 
                                 
                                 
                                 
                                        
                                        ; Timer 4 bitmasks
                                        
                                 
                                 
                                 
                                 
                                 
                                        
                                 
                                        
                                 
                                        
                                 
                                        
                                 
                                 
                                 
                                        
                                 
                                 
                                 
                                 
                                 
                                 
                                 
                                 
                                        
                                        ; ADC2
                                 
                                 
                                 
                                 
                                 
                                 
                                 
                                 
                                         
                                        ; ADC bitmasks
                                        
                                 
                                 
                                 
                                 
                                 
                                 
                                 
                                 
                                        
                                 
                                 
                                 
                                 
                                 
                                        
                                 
                                 
                                 
                                 
                                 
                                        
                                 
                                 
                                        
                                        ; beCAN
                                 
                                 
                                 
                                 
                                 
                                 
                                 
                                 
                                 
                                 
                                 
                                 
                                 
                                 
                                 
                                 
                                 
                                 
                                 
                                 
                                 
                                 
                                 
                                 
                                        
                                        
                                        ; CPU
                                 
                                 
                                 
                                 
                                 
                                 
                                 
                                 
                                 
                                 
                                 
                                        
                                        ; global configuration register
                                 
                                 
                                 
                                        
                                        ; interrupt control registers
                                 
                                 
                                 
                                 
                                 
                                 
                                 
                                 
                                        
                                        ; SWIM, control and status register
                                 
                                        ; debug registers
                                 
                                 
                                 
                                 
                                 
                                 
                                 
                                 
                                 
                                 
                                 
                                        
                                        ; Interrupt Numbers
                                 
                                 
                                 
                                 
                                 
                                 
                                 
                                 
                                 
                                 
                                 
                                 
                                 
                                 
                                 
                                 
                                 
                                 
                                 
                                 
                                 
                                 
                                 
                                 
                                 
                                        
                                        ; Interrupt Vectors
                                 
                                 
                                 
                                 
                                 
                                 
                                 
                                 
                                 
                                 
                                 
                                 
                                 
                                 
                                 
                                 
                                 
                                 
                                 
                                 
                                 
                                 
                                 
                                 
                                 
                                 
                                 
                                        
                                        ; Condition code register bits
                                 
                                 
                                 
                                 
                                 
                                 
                                 
                                     21     .list 
ASxxxx Assembler V02.00 + NoICE + SDCC mods  (STMicroelectronics STM8), page 2.
Hexadecimal [24-Bits]



                                     22 
                                     23 ; NOTE: pour l'assembleur sdas une étiquette terminée par **::** est une 
                                     24 ; étiquette globale qui peut être référencée dans un autre module.
                                     25 
                                     26     .area CODE 
                                     27 
                                     28 ;----------------------------------
                                     29 ; addition 24 bits
                                     30 ; input:
                                     31 ;  N1       premier argument 
                                     32 ;  N2       deuxième argument 
                                     33 ; output:
                                     34 ;   X:A     somme N1+N2 
                                     35 ;--------------------------------
                           000002    36     ARG_OFS=2
                           000003    37     N1=ARG_OFS+1
                           000006    38     N2=ARG_OFS+4
      000000                         39 add24::
      000000 1E 03            [ 2]   40     ldw x,(N1,sp)
      000002 7B 05            [ 1]   41     ld a,(N1+2,sp)
      000004 1B 08            [ 1]   42     add a,(N2+2,sp)
      000006 24 01            [ 1]   43     jrnc 1$
      000008 5C               [ 1]   44     incw x 
      000009 72 FB 06         [ 2]   45 1$: addw x,(N2,sp)
      00000C 81               [ 4]   46     ret 
                                     47 
                                     48 ;----------------------------------
                                     49 ; soustraction 24 bits
                                     50 ; input:
                                     51 ;  N1       premier argument 
                                     52 ;  N2       deuxième argument 
                                     53 ; output:
                                     54 ;   X:A     somme N1-N2 
                                     55 ;--------------------------------
                           000002    56     ARG_OFS=2
                           000003    57     N1=ARG_OFS+1
                           000006    58     N2=ARG_OFS+4
      00000D                         59 sub24::
      00000D 1E 03            [ 2]   60     ldw x,(N1,sp)
      00000F 7B 05            [ 1]   61     ld a,(N1+2,sp)
      000011 10 08            [ 1]   62     sub a,(N2+2,sp)
      000013 24 01            [ 1]   63     jrnc 1$
      000015 5A               [ 2]   64     decw x 
      000016 72 F0 06         [ 2]   65 1$: subw x,(N2,sp)
      000019 81               [ 4]   66     ret 
                                     67 
                                     68 
                                     69 ;----------------------------------------
                                     70 ; multiplication non signée d'un 
                                     71 ; entier 24 bits par un entier 8 bits.
                                     72 ; input:
                                     73 ;   U24         entier non signé 24 bits 
                                     74 ;   U8          entier non signé 8 bits
                                     75 ; output:
                                     76 ;   X:A        produit U24*U8
ASxxxx Assembler V02.00 + NoICE + SDCC mods  (STMicroelectronics STM8), page 3.
Hexadecimal [24-Bits]



                                     77 ; NOTE: cette routine jette le débordement
                                     78 ;       au delà du bit 23.
                                     79 ;---------------------------------------
                                     80 ; les arguments sont décalés de 5 octets à cause
                                     81 ; de la variable locale ACC24 de 3 octets.
                           000005    82     ARG_OFS=5
                           000006    83     U24 = ARG_OFS+1
                           000009    84     U8 = ARG_OFS+4
                                     85 ; variable locale pour produit partiel
                           000001    86     ACC24=1
                           000003    87     LOCAL_SIZE=3 
      00001A                         88 mul24_8u::
      00001A 52 03            [ 2]   89     sub sp,#LOCAL_SIZE 
      00001C 0F 01            [ 1]   90     clr (ACC24,sp)
                                     91 ; U24bits7:0 x U8      
      00001E 7B 08            [ 1]   92     ld a,(U24+2,sp)
      000020 97               [ 1]   93     ld xl,a 
      000021 7B 09            [ 1]   94     ld a,(U8,sp)
      000023 42               [ 4]   95     mul x,a
      000024 1F 02            [ 2]   96     ldw (ACC24+1,sp),x ; produit partiel 1
                                     97 ; produit U24bits15:8 x U8 
      000026 7B 07            [ 1]   98     ld a,(U24+1,sp)
      000028 97               [ 1]   99     ld xl,a 
      000029 42               [ 4]  100     mul x,a
      00002A 72 FB 01         [ 2]  101     addw x,(ACC24,sp)
      00002D 1F 01            [ 2]  102     ldw (ACC24,sp),x ; produit partiel 2
                                    103 ; produit U24bits23:16 x U8 
      00002F 7B 06            [ 1]  104     ld a,(U24,sp)
      000031 97               [ 1]  105     ld xl,a 
      000032 42               [ 4]  106     mul x,a 
                                    107 ; le contenu de xh est un débordement au delà du bit 23 
                                    108 ; donc on l'ignore. xl représente les 23:16 de ce produit partiel.    
      000033 9F               [ 1]  109     ld a,xl 
      000034 1B 01            [ 1]  110     add a,(ACC24,sp)
      000036 95               [ 1]  111     ld xh,a ; produit final bits 23:16
      000037 7B 02            [ 1]  112     ld a,(ACC24+1,sp)
      000039 97               [ 1]  113     ld xl,a  ; produit final bits 15:8
      00003A 7B 03            [ 1]  114     ld a,(ACC24+2,sp) ; produit final bits 7:0
      00003C 5B 03            [ 2]  115     addw sp,#LOCAL_SIZE 
      00003E 81               [ 4]  116     ret 
                                    117 
                                    118 
                                    119 ;----------------------------------
                                    120 ; multiplication non signée de 24 bits
                                    121 ; input:
                                    122 ;  N1       premier argument 
                                    123 ;  N2       deuxième argument 
                                    124 ; output:
                                    125 ;   X:A     somme N1*N2 
                                    126 ; NOTE: cette routine jette le débordement
                                    127 ;       au delà du bit 23.
                                    128 ;--------------------------------
                                    129 ; les arguments sont décalés de 5 octets:
                                    130 ;   2 pour l'adresse de retour 
                                    131 ;   6 pour ACC24   variable locale 
ASxxxx Assembler V02.00 + NoICE + SDCC mods  (STMicroelectronics STM8), page 4.
Hexadecimal [24-Bits]



                           000005   132     ARG_OFS=5
                           000006   133     N1=ARG_OFS+1  ; argument 1 
                           000009   134     N2=ARG_OFS+4  ; argument 2
                                    135 ; variable locale de 24 bits
                           000001   136     ACC24=1 ; 3 octets
                           000003   137     LOCAL_SIZE=3
      00003F                        138 mult24u:
      00003F 52 03            [ 2]  139     sub sp,#LOCAL_SIZE
                                    140 ; multiplie N2bit7:0 x N1 
      000041 7B 0B            [ 1]  141     ld a,(N2+2,sp)
      000043 88               [ 1]  142     push a 
      000044 7B 08            [ 1]  143     ld a,(N1+2,sp)
      000046 1E 06            [ 2]  144     ldw x,(N1,sp)
      000048 88               [ 1]  145     push a 
      000049 89               [ 2]  146     pushw x 
      00004A CD 00 1A         [ 4]  147     call mul24_8u
      00004D 5B 04            [ 2]  148     addw sp,#4 ;  supprime arguments de mul24_8u
                                    149 ; produit partiel 1
      00004F 6B 03            [ 1]  150     ld (ACC24+2,sp),a 
      000051 1F 01            [ 2]  151     ldw (ACC24,sp),x
                                    152 ; multiplie N2bit15:8 x N1     
      000053 7B 0A            [ 1]  153     ld a,(N2+1,sp)
      000055 88               [ 1]  154     push a 
      000056 7B 08            [ 1]  155     ld a,(N1+2,sp)
      000058 1E 06            [ 2]  156     ldw x,(N1,sp)
      00005A 88               [ 1]  157     push a 
      00005B 89               [ 2]  158     pushw x 
      00005C CD 00 1A         [ 4]  159     call mul24_8u
      00005F 5B 04            [ 2]  160     addw sp,#4
                                    161 ; additionne produit partiel 2 à produit partiel 1
                                    162 ;  xh représente un débordement après le bit 23 donc ignoré.
      000061 02               [ 1]  163     rlwa x 
      000062 72 FB 02         [ 2]  164     addw x,(ACC24+1,sp)
      000065 1F 01            [ 2]  165     ldw (ACC24,sp),x 
                                    166 ; multiplie N2bits23:16 x N1     
      000067 7B 09            [ 1]  167     ld a,(N2,sp)
      000069 88               [ 1]  168     push a 
      00006A 7B 08            [ 1]  169     ld a,(N1+2,sp)
      00006C 1E 06            [ 2]  170     ldw x,(N1,sp)
      00006E 88               [ 1]  171     push a 
      00006F 89               [ 2]  172     pushw x 
      000070 CD 00 1A         [ 4]  173     call mul24_8u
      000073 5B 04            [ 2]  174     addw sp,#4
                                    175 ; additionne produit partiel 3 à acc24 
      000075 1B 01            [ 1]  176     add a,(ACC24,sp)
      000077 6B 01            [ 1]  177     ld (ACC24,sp),a 
                                    178 ; retourne le produit dans X:A 
      000079 1E 01            [ 2]  179     ldw x,(ACC24,sp)
      00007B 7B 03            [ 1]  180     ld a,(ACC24+2,sp)
      00007D 5B 03            [ 2]  181     addw sp,#LOCAL_SIZE 
      00007F 81               [ 4]  182     ret 
                                    183 
                                    184 
                                    185 ;-------------------------------
                                    186 ;  division non signé de U1/U2 
ASxxxx Assembler V02.00 + NoICE + SDCC mods  (STMicroelectronics STM8), page 5.
Hexadecimal [24-Bits]



                                    187 ; input:
                                    188 ;   U1      dividende 24 bits
                                    189 ;   U2      diviseur  16 bits 
                                    190 ; output:
                                    191 ;   X:A     quotient U1/U2 
                                    192 ;   Y       reste 
                                    193 ;------------------------------
                           000007   194     ARG_OFS= 7
                           000008   195     U1 = ARG_OFS+1
                           00000B   196     U2 = ARG_OFS+4
                                    197 ; variable locale 
                           000001   198     QUOT = 1 ; quotient
                           000004   199     MOD = 4  ; reste de la division 
                           000005   200     LOCAL_SIZE=5
      000080                        201 div24_16u::
      000080 52 05            [ 2]  202     sub sp,#LOCAL_SIZE 
      000082 5F               [ 1]  203     clrw x 
      000083 1F 04            [ 2]  204     ldw (MOD,sp),x 
      000085 1F 01            [ 2]  205     ldw (QUOT,sp),x 
      000087 0F 03            [ 1]  206     clr (QUOT+2,sp)
      000089 16 0B            [ 2]  207     ldw y,(U2,sp)
      00008B 90 5D            [ 2]  208     tnzw y 
      00008D 26 01            [ 1]  209     jrne 1$
      00008F 71                     210     .byte 0x71 ; division par zéro réinitialise le MCU.
      000090 1E 08            [ 2]  211 1$: ldw x,(U1,sp) 
      000092 5D               [ 2]  212     tnzw x 
      000093 26 04            [ 1]  213     jrne 2$
      000095 0D 0A            [ 1]  214     tnz (U1+2,sp)
      000097 27 24            [ 1]  215     jreq 6$ ; U1==0 , division complétée  
      000099                        216 2$:
      000099 13 0B            [ 2]  217     cpw x,(U2,sp)
      00009B 24 14            [ 1]  218     jruge 3$
                                    219 ; multiplie diviende par 2    
      00009D 7B 0A            [ 1]  220     ld a,(U1+2,sp)
      00009F 48               [ 1]  221     sll a 
      0000A0 58               [ 2]  222     sllw x
      0000A1 6B 0A            [ 1]  223     ld (U1+2,sp),a
      0000A3 1F 08            [ 2]  224     ldw (U1,sp),x 
                                    225 ; multiplie quotient par 2     
      0000A5 7B 03            [ 1]  226     ld a,(QUOT+2,sp)
      0000A7 1E 01            [ 2]  227     ldw x,(QUOT,sp)
      0000A9 48               [ 1]  228     sll a 
      0000AA 58               [ 2]  229     sllw x 
      0000AB 6B 03            [ 1]  230     ld (QUOT+2,sp),a 
      0000AD 1F 01            [ 2]  231     ldw (QUOT,sp),x 
      0000AF 20 E8            [ 2]  232     jra 2$ 
      0000B1 65               [ 2]  233 3$: divw x,y  
      0000B2 17 04            [ 2]  234     ldw (MOD,sp),y 
      0000B4 16 0B            [ 2]  235     ldw y,(U2,sp) 
      0000B6 72 FB 02         [ 2]  236     addw x,(QUOT+1,sp)
      0000B9 1F 02            [ 2]  237     ldw (QUOT+1,sp),x 
                                    238 ;    jrnc 1$
                                    239 ;    inc ( QUOT,sp)
      0000BB 20 D3            [ 2]  240     jra 1$
      0000BD 1E 01            [ 2]  241 6$: ldw x,(ACC24,sp)
ASxxxx Assembler V02.00 + NoICE + SDCC mods  (STMicroelectronics STM8), page 6.
Hexadecimal [24-Bits]



      0000BF 7B 03            [ 1]  242     ld a,(ACC24+2,sp)
      0000C1 16 04            [ 2]  243     ldw y,(MOD,sp)
      0000C3 5B 05            [ 2]  244     addw sp,#LOCAL_SIZE 
      0000C5 81               [ 4]  245     ret 
                                    246 
                                    247 ;-------------------------------------------
                                    248 ; complément à 2 
                                    249 ; input:
                                    250 ;   X:A     entier 24 bits 
                                    251 ; output:
                                    252 ;   X:A     complément à 2 de l'entier.
                                    253 ;------------------------------------------
      0000C6                        254 neg24::
      0000C6 43               [ 1]  255     cpl a 
      0000C7 53               [ 2]  256     cplw x 
      0000C8 AB 01            [ 1]  257     add a,#1
      0000CA 24 01            [ 1]  258     jrnc 1$
      0000CC 5C               [ 1]  259     incw x 
      0000CD 81               [ 4]  260 1$: ret 
                                    261 
ASxxxx Assembler V02.00 + NoICE + SDCC mods  (STMicroelectronics STM8), page 7.
Hexadecimal [24-Bits]

Symbol Table

    .__.$$$.=  002710 L   |     .__.ABS.=  000000 G   |     .__.CPU.=  000000 L
    .__.H$L.=  000001 L   |     ACC24   =  000001     |     ADC_CR1 =  005401 
    ADC_CR1_=  000000     |     ADC_CR1_=  000001     |     ADC_CR1_=  000004 
    ADC_CR1_=  000005     |     ADC_CR1_=  000006     |     ADC_CR2 =  005402 
    ADC_CR2_=  000003     |     ADC_CR2_=  000004     |     ADC_CR2_=  000005 
    ADC_CR2_=  000006     |     ADC_CR2_=  000001     |     ADC_CR3 =  005403 
    ADC_CR3_=  000007     |     ADC_CR3_=  000006     |     ADC_CSR =  005400 
    ADC_CSR_=  000006     |     ADC_CSR_=  000004     |     ADC_CSR_=  000000 
    ADC_CSR_=  000001     |     ADC_CSR_=  000002     |     ADC_CSR_=  000003 
    ADC_CSR_=  000007     |     ADC_CSR_=  000005     |     ADC_DRH =  005404 
    ADC_DRL =  005405     |     ADC_TDRH=  005406     |     ADC_TDRL=  005407 
    AFR     =  004803     |     AFR0_ADC=  000000     |     AFR1_TIM=  000001 
    AFR2_CCO=  000002     |     AFR3_TIM=  000003     |     AFR4_TIM=  000004 
    AFR5_TIM=  000005     |     AFR6_I2C=  000006     |     AFR7_BEE=  000007 
    ARG_OFS =  000007     |     AWU_APR =  0050F1     |     AWU_CSR1=  0050F0 
    AWU_TBR =  0050F2     |     B0_MASK =  000001     |     B115200 =  000006 
    B19200  =  000003     |     B1_MASK =  000002     |     B230400 =  000007 
    B2400   =  000000     |     B2_MASK =  000004     |     B38400  =  000004 
    B3_MASK =  000008     |     B460800 =  000008     |     B4800   =  000001 
    B4_MASK =  000010     |     B57600  =  000005     |     B5_MASK =  000020 
    B6_MASK =  000040     |     B7_MASK =  000080     |     B921600 =  000009 
    B9600   =  000002     |     BEEP_BIT=  000004     |     BEEP_CSR=  0050F3 
    BEEP_MAS=  000010     |     BEEP_POR=  00000F     |     BIT0    =  000000 
    BIT1    =  000001     |     BIT2    =  000002     |     BIT3    =  000003 
    BIT4    =  000004     |     BIT5    =  000005     |     BIT6    =  000006 
    BIT7    =  000007     |     BOOT_ROM=  006000     |     BOOT_ROM=  007FFF 
    CAN_DGR =  005426     |     CAN_FPSR=  005427     |     CAN_IER =  005425 
    CAN_MCR =  005420     |     CAN_MSR =  005421     |     CAN_P0  =  005428 
    CAN_P1  =  005429     |     CAN_P2  =  00542A     |     CAN_P3  =  00542B 
    CAN_P4  =  00542C     |     CAN_P5  =  00542D     |     CAN_P6  =  00542E 
    CAN_P7  =  00542F     |     CAN_P8  =  005430     |     CAN_P9  =  005431 
    CAN_PA  =  005432     |     CAN_PB  =  005433     |     CAN_PC  =  005434 
    CAN_PD  =  005435     |     CAN_PE  =  005436     |     CAN_PF  =  005437 
    CAN_RFR =  005424     |     CAN_TPR =  005423     |     CAN_TSR =  005422 
    CC_C    =  000000     |     CC_H    =  000004     |     CC_I0   =  000003 
    CC_I1   =  000005     |     CC_N    =  000002     |     CC_V    =  000007 
    CC_Z    =  000001     |     CFG_GCR =  007F60     |     CFG_GCR_=  000001 
    CFG_GCR_=  000000     |     CLKOPT  =  004807     |     CLKOPT_C=  000002 
    CLKOPT_E=  000003     |     CLKOPT_P=  000000     |     CLKOPT_P=  000001 
    CLK_CCOR=  0050C9     |     CLK_CKDI=  0050C6     |     CLK_CKDI=  000000 
    CLK_CKDI=  000001     |     CLK_CKDI=  000002     |     CLK_CKDI=  000003 
    CLK_CKDI=  000004     |     CLK_CMSR=  0050C3     |     CLK_CSSR=  0050C8 
    CLK_ECKR=  0050C1     |     CLK_ECKR=  000000     |     CLK_ECKR=  000001 
    CLK_HSIT=  0050CC     |     CLK_ICKR=  0050C0     |     CLK_ICKR=  000002 
    CLK_ICKR=  000000     |     CLK_ICKR=  000001     |     CLK_ICKR=  000003 
    CLK_ICKR=  000004     |     CLK_ICKR=  000005     |     CLK_PCKE=  0050C7 
    CLK_PCKE=  000000     |     CLK_PCKE=  000001     |     CLK_PCKE=  000007 
    CLK_PCKE=  000005     |     CLK_PCKE=  000006     |     CLK_PCKE=  000004 
    CLK_PCKE=  000002     |     CLK_PCKE=  000003     |     CLK_PCKE=  0050CA 
    CLK_PCKE=  000003     |     CLK_PCKE=  000002     |     CLK_PCKE=  000007 
    CLK_SWCR=  0050C5     |     CLK_SWCR=  000000     |     CLK_SWCR=  000001 
    CLK_SWCR=  000002     |     CLK_SWCR=  000003     |     CLK_SWIM=  0050CD 
    CLK_SWR =  0050C4     |     CLK_SWR_=  0000B4     |     CLK_SWR_=  0000E1 
    CLK_SWR_=  0000D2     |     CPU_A   =  007F00     |     CPU_CCR =  007F0A 
    CPU_PCE =  007F01     |     CPU_PCH =  007F02     |     CPU_PCL =  007F03 
ASxxxx Assembler V02.00 + NoICE + SDCC mods  (STMicroelectronics STM8), page 8.
Hexadecimal [24-Bits]

Symbol Table

    CPU_SPH =  007F08     |     CPU_SPL =  007F09     |     CPU_XH  =  007F04 
    CPU_XL  =  007F05     |     CPU_YH  =  007F06     |     CPU_YL  =  007F07 
    DEBUG_BA=  007F00     |     DEBUG_EN=  007FFF     |     DEVID_BA=  0048CD 
    DEVID_EN=  0048D8     |     DEVID_LO=  0048D2     |     DEVID_LO=  0048D3 
    DEVID_LO=  0048D4     |     DEVID_LO=  0048D5     |     DEVID_LO=  0048D6 
    DEVID_LO=  0048D7     |     DEVID_LO=  0048D8     |     DEVID_WA=  0048D1 
    DEVID_XH=  0048CE     |     DEVID_XL=  0048CD     |     DEVID_YH=  0048D0 
    DEVID_YL=  0048CF     |     DM_BK1RE=  007F90     |     DM_BK1RH=  007F91 
    DM_BK1RL=  007F92     |     DM_BK2RE=  007F93     |     DM_BK2RH=  007F94 
    DM_BK2RL=  007F95     |     DM_CR1  =  007F96     |     DM_CR2  =  007F97 
    DM_CSR1 =  007F98     |     DM_CSR2 =  007F99     |     DM_ENFCT=  007F9A 
    EEPROM_B=  004000     |     EEPROM_E=  0047FF     |     EEPROM_S=  000800 
    EXTI_CR1=  0050A0     |     EXTI_CR2=  0050A1     |     FHSE    =  7A1200 
    FHSI    =  F42400     |     FLASH_BA=  008000     |     FLASH_CR=  00505A 
    FLASH_CR=  000002     |     FLASH_CR=  000000     |     FLASH_CR=  000003 
    FLASH_CR=  000001     |     FLASH_CR=  00505B     |     FLASH_CR=  000005 
    FLASH_CR=  000004     |     FLASH_CR=  000007     |     FLASH_CR=  000000 
    FLASH_CR=  000006     |     FLASH_DU=  005064     |     FLASH_DU=  0000AE 
    FLASH_DU=  000056     |     FLASH_EN=  027FFF     |     FLASH_FP=  00505D 
    FLASH_FP=  000000     |     FLASH_FP=  000001     |     FLASH_FP=  000002 
    FLASH_FP=  000003     |     FLASH_FP=  000004     |     FLASH_FP=  000005 
    FLASH_IA=  00505F     |     FLASH_IA=  000003     |     FLASH_IA=  000002 
    FLASH_IA=  000006     |     FLASH_IA=  000001     |     FLASH_IA=  000000 
    FLASH_NC=  00505C     |     FLASH_NF=  00505E     |     FLASH_NF=  000000 
    FLASH_NF=  000001     |     FLASH_NF=  000002     |     FLASH_NF=  000003 
    FLASH_NF=  000004     |     FLASH_NF=  000005     |     FLASH_PU=  005062 
    FLASH_PU=  000056     |     FLASH_PU=  0000AE     |     FLASH_SI=  020000 
    FLASH_WS=  00480D     |     FLSI    =  01F400     |     GPIO_BAS=  005000 
    GPIO_CR1=  000003     |     GPIO_CR2=  000004     |     GPIO_DDR=  000002 
    GPIO_IDR=  000001     |     GPIO_ODR=  000000     |     GPIO_SIZ=  000005 
    HSECNT  =  004809     |     I2C_CCRH=  00521C     |     I2C_CCRH=  000080 
    I2C_CCRH=  0000C0     |     I2C_CCRH=  000080     |     I2C_CCRH=  000000 
    I2C_CCRH=  000001     |     I2C_CCRH=  000000     |     I2C_CCRL=  00521B 
    I2C_CCRL=  00001A     |     I2C_CCRL=  000002     |     I2C_CCRL=  00000D 
    I2C_CCRL=  000050     |     I2C_CCRL=  000090     |     I2C_CCRL=  0000A0 
    I2C_CR1 =  005210     |     I2C_CR1_=  000006     |     I2C_CR1_=  000007 
    I2C_CR1_=  000000     |     I2C_CR2 =  005211     |     I2C_CR2_=  000002 
    I2C_CR2_=  000003     |     I2C_CR2_=  000000     |     I2C_CR2_=  000001 
    I2C_CR2_=  000007     |     I2C_DR  =  005216     |     I2C_FREQ=  005212 
    I2C_ITR =  00521A     |     I2C_ITR_=  000002     |     I2C_ITR_=  000000 
    I2C_ITR_=  000001     |     I2C_OARH=  005214     |     I2C_OARH=  000001 
    I2C_OARH=  000002     |     I2C_OARH=  000006     |     I2C_OARH=  000007 
    I2C_OARL=  005213     |     I2C_OARL=  000000     |     I2C_OAR_=  000813 
    I2C_OAR_=  000009     |     I2C_PECR=  00521E     |     I2C_READ=  000001 
    I2C_SR1 =  005217     |     I2C_SR1_=  000003     |     I2C_SR1_=  000001 
    I2C_SR1_=  000002     |     I2C_SR1_=  000006     |     I2C_SR1_=  000000 
    I2C_SR1_=  000004     |     I2C_SR1_=  000007     |     I2C_SR2 =  005218 
    I2C_SR2_=  000002     |     I2C_SR2_=  000001     |     I2C_SR2_=  000000 
    I2C_SR2_=  000003     |     I2C_SR2_=  000005     |     I2C_SR3 =  005219 
    I2C_SR3_=  000001     |     I2C_SR3_=  000007     |     I2C_SR3_=  000004 
    I2C_SR3_=  000000     |     I2C_SR3_=  000002     |     I2C_TRIS=  00521D 
    I2C_TRIS=  000005     |     I2C_TRIS=  000005     |     I2C_TRIS=  000005 
    I2C_TRIS=  000011     |     I2C_TRIS=  000011     |     I2C_TRIS=  000011 
    I2C_WRIT=  000000     |     INPUT_DI=  000000     |     INPUT_EI=  000001 
    INPUT_FL=  000000     |     INPUT_PU=  000001     |     INT_ADC2=  000016 
ASxxxx Assembler V02.00 + NoICE + SDCC mods  (STMicroelectronics STM8), page 9.
Hexadecimal [24-Bits]

Symbol Table

    INT_AUAR=  000012     |     INT_AWU =  000001     |     INT_CAN_=  000008 
    INT_CAN_=  000009     |     INT_CLK =  000002     |     INT_EXTI=  000003 
    INT_EXTI=  000004     |     INT_EXTI=  000005     |     INT_EXTI=  000006 
    INT_EXTI=  000007     |     INT_FLAS=  000018     |     INT_I2C =  000013 
    INT_SPI =  00000A     |     INT_TIM1=  00000C     |     INT_TIM1=  00000B 
    INT_TIM2=  00000E     |     INT_TIM2=  00000D     |     INT_TIM3=  000010 
    INT_TIM3=  00000F     |     INT_TIM4=  000017     |     INT_TLI =  000000 
    INT_UART=  000011     |     INT_UART=  000015     |     INT_UART=  000014 
    INT_VECT=  008060     |     INT_VECT=  00800C     |     INT_VECT=  008028 
    INT_VECT=  00802C     |     INT_VECT=  008010     |     INT_VECT=  008014 
    INT_VECT=  008018     |     INT_VECT=  00801C     |     INT_VECT=  008020 
    INT_VECT=  008024     |     INT_VECT=  008068     |     INT_VECT=  008054 
    INT_VECT=  008000     |     INT_VECT=  008030     |     INT_VECT=  008038 
    INT_VECT=  008034     |     INT_VECT=  008040     |     INT_VECT=  00803C 
    INT_VECT=  008048     |     INT_VECT=  008044     |     INT_VECT=  008064 
    INT_VECT=  008008     |     INT_VECT=  008004     |     INT_VECT=  008050 
    INT_VECT=  00804C     |     INT_VECT=  00805C     |     INT_VECT=  008058 
    ITC_SPR1=  007F70     |     ITC_SPR2=  007F71     |     ITC_SPR3=  007F72 
    ITC_SPR4=  007F73     |     ITC_SPR5=  007F74     |     ITC_SPR6=  007F75 
    ITC_SPR7=  007F76     |     ITC_SPR8=  007F77     |     IWDG_KR =  0050E0 
    IWDG_PR =  0050E1     |     IWDG_RLR=  0050E2     |     LED2_BIT=  000005 
    LED2_MAS=  000020     |     LED2_POR=  00500A     |     LOCAL_SI=  000005 
    MOD     =  000004     |     N1      =  000006     |     N2      =  000009 
    NAFR    =  004804     |     NCLKOPT =  004808     |     NFLASH_W=  00480E 
    NHSECNT =  00480A     |     NOPT1   =  004802     |     NOPT2   =  004804 
    NOPT3   =  004806     |     NOPT4   =  004808     |     NOPT5   =  00480A 
    NOPT6   =  00480C     |     NOPT7   =  00480E     |     NOPTBL  =  00487F 
    NUBC    =  004802     |     NWDGOPT =  004806     |     NWDGOPT_=  FFFFFFFD 
    NWDGOPT_=  FFFFFFFC     |     NWDGOPT_=  FFFFFFFF     |     NWDGOPT_=  FFFFFFFE 
    OPT0    =  004800     |     OPT1    =  004801     |     OPT2    =  004803 
    OPT3    =  004805     |     OPT4    =  004807     |     OPT5    =  004809 
    OPT6    =  00480B     |     OPT7    =  00480D     |     OPTBL   =  00487E 
    OPTION_B=  004800     |     OPTION_E=  00487F     |     OUTPUT_F=  000001 
    OUTPUT_O=  000000     |     OUTPUT_P=  000001     |     OUTPUT_S=  000000 
    PA      =  000000     |     PA_BASE =  005000     |     PA_CR1  =  005003 
    PA_CR2  =  005004     |     PA_DDR  =  005002     |     PA_IDR  =  005001 
    PA_ODR  =  005000     |     PB      =  000005     |     PB_BASE =  005005 
    PB_CR1  =  005008     |     PB_CR2  =  005009     |     PB_DDR  =  005007 
    PB_IDR  =  005006     |     PB_ODR  =  005005     |     PC      =  00000A 
    PC_BASE =  00500A     |     PC_CR1  =  00500D     |     PC_CR2  =  00500E 
    PC_DDR  =  00500C     |     PC_IDR  =  00500B     |     PC_ODR  =  00500A 
    PD      =  00000F     |     PD_BASE =  00500F     |     PD_CR1  =  005012 
    PD_CR2  =  005013     |     PD_DDR  =  005011     |     PD_IDR  =  005010 
    PD_ODR  =  00500F     |     PE      =  000014     |     PE_BASE =  005014 
    PE_CR1  =  005017     |     PE_CR2  =  005018     |     PE_DDR  =  005016 
    PE_IDR  =  005015     |     PE_ODR  =  005014     |     PF      =  000019 
    PF_BASE =  005019     |     PF_CR1  =  00501C     |     PF_CR2  =  00501D 
    PF_DDR  =  00501B     |     PF_IDR  =  00501A     |     PF_ODR  =  005019 
    PG      =  00001E     |     PG_BASE =  00501E     |     PG_CR1  =  005021 
    PG_CR2  =  005022     |     PG_DDR  =  005020     |     PG_IDR  =  00501F 
    PG_ODR  =  00501E     |     PH_BASE =  005023     |     PH_CR1  =  005026 
    PH_CR2  =  005027     |     PH_DDR  =  005025     |     PH_IDR  =  005024 
    PH_ODR  =  005023     |     PI_BASE =  005028     |     PI_CR1  =  00502B 
    PI_CR2  =  00502C     |     PI_DDR  =  00502A     |     PI_IDR  =  005029 
    PI_ODR  =  005028     |     QUOT    =  000001     |     RAM_BASE=  000000 
ASxxxx Assembler V02.00 + NoICE + SDCC mods  (STMicroelectronics STM8), page 10.
Hexadecimal [24-Bits]

Symbol Table

    RAM_END =  0017FF     |     RAM_SIZE=  001800     |     ROP     =  004800 
    RST_SR  =  0050B3     |     SFR_BASE=  005000     |     SFR_END =  0057FF 
    SPI_CR1 =  005200     |     SPI_CR2 =  005201     |     SPI_CRCP=  005205 
    SPI_DR  =  005204     |     SPI_ICR =  005202     |     SPI_RXCR=  005206 
    SPI_SR  =  005203     |     SPI_TXCR=  005207     |     SWIM_CSR=  007F80 
    TIM1_ARR=  005262     |     TIM1_ARR=  005263     |     TIM1_BKR=  00526D 
    TIM1_CCE=  00525C     |     TIM1_CCE=  00525D     |     TIM1_CCM=  005258 
    TIM1_CCM=  000000     |     TIM1_CCM=  000001     |     TIM1_CCM=  000004 
    TIM1_CCM=  000005     |     TIM1_CCM=  000006     |     TIM1_CCM=  000007 
    TIM1_CCM=  000002     |     TIM1_CCM=  000003     |     TIM1_CCM=  000007 
    TIM1_CCM=  000002     |     TIM1_CCM=  000004     |     TIM1_CCM=  000005 
    TIM1_CCM=  000006     |     TIM1_CCM=  000003     |     TIM1_CCM=  005259 
    TIM1_CCM=  000000     |     TIM1_CCM=  000001     |     TIM1_CCM=  000004 
    TIM1_CCM=  000005     |     TIM1_CCM=  000006     |     TIM1_CCM=  000007 
    TIM1_CCM=  000002     |     TIM1_CCM=  000003     |     TIM1_CCM=  000007 
    TIM1_CCM=  000002     |     TIM1_CCM=  000004     |     TIM1_CCM=  000005 
    TIM1_CCM=  000006     |     TIM1_CCM=  000003     |     TIM1_CCM=  00525A 
    TIM1_CCM=  000000     |     TIM1_CCM=  000001     |     TIM1_CCM=  000004 
    TIM1_CCM=  000005     |     TIM1_CCM=  000006     |     TIM1_CCM=  000007 
    TIM1_CCM=  000002     |     TIM1_CCM=  000003     |     TIM1_CCM=  000007 
    TIM1_CCM=  000002     |     TIM1_CCM=  000004     |     TIM1_CCM=  000005 
    TIM1_CCM=  000006     |     TIM1_CCM=  000003     |     TIM1_CCM=  00525B 
    TIM1_CCM=  000000     |     TIM1_CCM=  000001     |     TIM1_CCM=  000004 
    TIM1_CCM=  000005     |     TIM1_CCM=  000006     |     TIM1_CCM=  000007 
    TIM1_CCM=  000002     |     TIM1_CCM=  000003     |     TIM1_CCM=  000007 
    TIM1_CCM=  000002     |     TIM1_CCM=  000004     |     TIM1_CCM=  000005 
    TIM1_CCM=  000006     |     TIM1_CCM=  000003     |     TIM1_CCR=  005265 
    TIM1_CCR=  005266     |     TIM1_CCR=  005267     |     TIM1_CCR=  005268 
    TIM1_CCR=  005269     |     TIM1_CCR=  00526A     |     TIM1_CCR=  00526B 
    TIM1_CCR=  00526C     |     TIM1_CNT=  00525E     |     TIM1_CNT=  00525F 
    TIM1_CR1=  005250     |     TIM1_CR2=  005251     |     TIM1_CR2=  000000 
    TIM1_CR2=  000002     |     TIM1_CR2=  000004     |     TIM1_CR2=  000005 
    TIM1_CR2=  000006     |     TIM1_DTR=  00526E     |     TIM1_EGR=  005257 
    TIM1_EGR=  000007     |     TIM1_EGR=  000001     |     TIM1_EGR=  000002 
    TIM1_EGR=  000003     |     TIM1_EGR=  000004     |     TIM1_EGR=  000005 
    TIM1_EGR=  000006     |     TIM1_EGR=  000000     |     TIM1_ETR=  005253 
    TIM1_ETR=  000006     |     TIM1_ETR=  000000     |     TIM1_ETR=  000001 
    TIM1_ETR=  000002     |     TIM1_ETR=  000003     |     TIM1_ETR=  000007 
    TIM1_ETR=  000004     |     TIM1_ETR=  000005     |     TIM1_IER=  005254 
    TIM1_IER=  000007     |     TIM1_IER=  000001     |     TIM1_IER=  000002 
    TIM1_IER=  000003     |     TIM1_IER=  000004     |     TIM1_IER=  000005 
    TIM1_IER=  000006     |     TIM1_IER=  000000     |     TIM1_OIS=  00526F 
    TIM1_PSC=  005260     |     TIM1_PSC=  005261     |     TIM1_RCR=  005264 
    TIM1_SMC=  005252     |     TIM1_SMC=  000007     |     TIM1_SMC=  000000 
    TIM1_SMC=  000001     |     TIM1_SMC=  000002     |     TIM1_SMC=  000004 
    TIM1_SMC=  000005     |     TIM1_SMC=  000006     |     TIM1_SR1=  005255 
    TIM1_SR1=  000007     |     TIM1_SR1=  000001     |     TIM1_SR1=  000002 
    TIM1_SR1=  000003     |     TIM1_SR1=  000004     |     TIM1_SR1=  000005 
    TIM1_SR1=  000006     |     TIM1_SR1=  000000     |     TIM1_SR2=  005256 
    TIM1_SR2=  000001     |     TIM1_SR2=  000002     |     TIM1_SR2=  000003 
    TIM1_SR2=  000004     |     TIM2_ARR=  00530D     |     TIM2_ARR=  00530E 
    TIM2_CCE=  005308     |     TIM2_CCE=  005309     |     TIM2_CCM=  005305 
    TIM2_CCM=  005306     |     TIM2_CCM=  005307     |     TIM2_CCR=  00530F 
    TIM2_CCR=  005310     |     TIM2_CCR=  005311     |     TIM2_CCR=  005312 
    TIM2_CCR=  005313     |     TIM2_CCR=  005314     |     TIM2_CNT=  00530A 
ASxxxx Assembler V02.00 + NoICE + SDCC mods  (STMicroelectronics STM8), page 11.
Hexadecimal [24-Bits]

Symbol Table

    TIM2_CNT=  00530B     |     TIM2_CR1=  005300     |     TIM2_EGR=  005304 
    TIM2_IER=  005301     |     TIM2_PSC=  00530C     |     TIM2_SR1=  005302 
    TIM2_SR2=  005303     |     TIM3_ARR=  00532B     |     TIM3_ARR=  00532C 
    TIM3_CCE=  005327     |     TIM3_CCE=  000000     |     TIM3_CCE=  000001 
    TIM3_CCE=  000004     |     TIM3_CCE=  000005     |     TIM3_CCE=  000000 
    TIM3_CCE=  000001     |     TIM3_CCM=  005325     |     TIM3_CCM=  005326 
    TIM3_CCM=  000000     |     TIM3_CCM=  000004     |     TIM3_CCM=  000003 
    TIM3_CCR=  00532D     |     TIM3_CCR=  00532E     |     TIM3_CCR=  00532F 
    TIM3_CCR=  005330     |     TIM3_CNT=  005328     |     TIM3_CNT=  005329 
    TIM3_CR1=  005320     |     TIM3_CR1=  000007     |     TIM3_CR1=  000000 
    TIM3_CR1=  000003     |     TIM3_CR1=  000001     |     TIM3_CR1=  000002 
    TIM3_EGR=  005324     |     TIM3_IER=  005321     |     TIM3_PSC=  00532A 
    TIM3_SR1=  005322     |     TIM3_SR2=  005323     |     TIM4_ARR=  005346 
    TIM4_CNT=  005344     |     TIM4_CR1=  005340     |     TIM4_CR1=  000007 
    TIM4_CR1=  000000     |     TIM4_CR1=  000003     |     TIM4_CR1=  000001 
    TIM4_CR1=  000002     |     TIM4_EGR=  005343     |     TIM4_EGR=  000000 
    TIM4_IER=  005341     |     TIM4_IER=  000000     |     TIM4_PSC=  005345 
    TIM4_PSC=  000000     |     TIM4_PSC=  000007     |     TIM4_PSC=  000004 
    TIM4_PSC=  000001     |     TIM4_PSC=  000005     |     TIM4_PSC=  000002 
    TIM4_PSC=  000006     |     TIM4_PSC=  000003     |     TIM4_PSC=  000000 
    TIM4_PSC=  000001     |     TIM4_PSC=  000002     |     TIM4_SR =  005342 
    TIM4_SR_=  000000     |     TIM_CR1_=  000007     |     TIM_CR1_=  000000 
    TIM_CR1_=  000006     |     TIM_CR1_=  000005     |     TIM_CR1_=  000004 
    TIM_CR1_=  000003     |     TIM_CR1_=  000001     |     TIM_CR1_=  000002 
    U1      =  000008     |     U2      =  00000B     |     U24     =  000006 
    U8      =  000009     |     UART1   =  000000     |     UART1_BA=  005230 
    UART1_BR=  005232     |     UART1_BR=  005233     |     UART1_CR=  005234 
    UART1_CR=  005235     |     UART1_CR=  005236     |     UART1_CR=  005237 
    UART1_CR=  005238     |     UART1_DR=  005231     |     UART1_GT=  005239 
    UART1_PO=  000000     |     UART1_PS=  00523A     |     UART1_RX=  000004 
    UART1_SR=  005230     |     UART1_TX=  000005     |     UART3   =  000001 
    UART3_BA=  005240     |     UART3_BR=  005242     |     UART3_BR=  005243 
    UART3_CR=  005244     |     UART3_CR=  005245     |     UART3_CR=  005246 
    UART3_CR=  005247     |     UART3_CR=  004249     |     UART3_DR=  005241 
    UART3_PO=  00000F     |     UART3_RX=  000006     |     UART3_SR=  005240 
    UART3_TX=  000005     |     UART_BRR=  000002     |     UART_BRR=  000003 
    UART_CR1=  000004     |     UART_CR1=  000004     |     UART_CR1=  000002 
    UART_CR1=  000000     |     UART_CR1=  000001     |     UART_CR1=  000007 
    UART_CR1=  000006     |     UART_CR1=  000005     |     UART_CR1=  000003 
    UART_CR2=  000005     |     UART_CR2=  000004     |     UART_CR2=  000002 
    UART_CR2=  000005     |     UART_CR2=  000001     |     UART_CR2=  000000 
    UART_CR2=  000006     |     UART_CR2=  000003     |     UART_CR2=  000007 
    UART_CR3=  000006     |     UART_CR3=  000003     |     UART_CR3=  000001 
    UART_CR3=  000002     |     UART_CR3=  000000     |     UART_CR3=  000006 
    UART_CR3=  000004     |     UART_CR3=  000005     |     UART_CR4=  000007 
    UART_CR4=  000000     |     UART_CR4=  000001     |     UART_CR4=  000002 
    UART_CR4=  000003     |     UART_CR4=  000004     |     UART_CR4=  000006 
    UART_CR4=  000005     |     UART_CR5=  000008     |     UART_CR5=  000003 
    UART_CR5=  000001     |     UART_CR5=  000002     |     UART_CR5=  000004 
    UART_CR5=  000005     |     UART_CR6=  000009     |     UART_CR6=  000004 
    UART_CR6=  000007     |     UART_CR6=  000001     |     UART_CR6=  000002 
    UART_CR6=  000000     |     UART_CR6=  000005     |     UART_DR =  000001 
    UART_GTR=  000009     |     UART_PSC=  00000A     |     UART_SR =  000000 
    UART_SR_=  000001     |     UART_SR_=  000004     |     UART_SR_=  000002 
    UART_SR_=  000003     |     UART_SR_=  000000     |     UART_SR_=  000005 
ASxxxx Assembler V02.00 + NoICE + SDCC mods  (STMicroelectronics STM8), page 12.
Hexadecimal [24-Bits]

Symbol Table

    UART_SR_=  000006     |     UART_SR_=  000007     |     UBC     =  004801 
    USR_BTN_=  000004     |     USR_BTN_=  000010     |     USR_BTN_=  005015 
    WDGOPT  =  004805     |     WDGOPT_I=  000002     |     WDGOPT_L=  000003 
    WDGOPT_W=  000000     |     WDGOPT_W=  000001     |     WWDG_CR =  0050D1 
    WWDG_WR =  0050D2     |   1 add24      000000 GR  |   1 div24_16   000080 GR
  1 mul24_8u   00001A GR  |   1 mult24u    00003F R   |   1 neg24      0000C6 GR
  1 sub24      00000D GR

ASxxxx Assembler V02.00 + NoICE + SDCC mods  (STMicroelectronics STM8), page 13.
Hexadecimal [24-Bits]

Area Table

   0 _CODE      size      0   flags    0
   1 CODE       size     CE   flags    0

